

Microchip MPLAB XC8 Assembler V2.31 build 20201012212115 
                                                                                               Sun Aug 01 02:06:32 2021

Microchip MPLAB XC8 C Compiler v2.31 (Free license) build 20201012212115 Og1 
     1                           	processor	16F887
     2                           	pagewidth 120
     3                           	opt	flic
     4                           	psect	strings,global,class=STRING,delta=2,noexec
     5                           	psect	cinit,global,class=CODE,merge=1,delta=2
     6                           	psect	bssBANK0,global,class=BANK0,space=1,delta=1,noexec
     7                           	psect	bssBANK1,global,class=BANK1,space=1,delta=1,noexec
     8                           	psect	clrtext,global,class=CODE,delta=2
     9                           	psect	cstackCOMMON,global,class=COMMON,space=1,delta=1,noexec
    10                           	psect	cstackBANK0,global,class=BANK0,space=1,delta=1,noexec
    11                           	psect	maintext,global,class=CODE,split=1,delta=2
    12                           	psect	text1,local,class=CODE,merge=1,delta=2,group=3
    13                           	psect	text2,local,class=CODE,merge=1,delta=2,group=3
    14                           	psect	text3,local,class=CODE,merge=1,delta=2
    15                           	psect	text4,local,class=CODE,merge=1,delta=2
    16                           	psect	text5,local,class=CODE,merge=1,delta=2
    17                           	psect	text6,local,class=CODE,merge=1,delta=2
    18                           	psect	text7,local,class=CODE,merge=1,delta=2
    19                           	psect	text8,local,class=CODE,merge=1,delta=2,group=3
    20                           	psect	text9,local,class=CODE,merge=1,delta=2,group=1
    21                           	psect	text10,local,class=CODE,merge=1,delta=2
    22                           	psect	text11,local,class=CODE,merge=1,delta=2,group=2
    23                           	psect	text12,local,class=CODE,merge=1,delta=2,group=2
    24                           	psect	text13,local,class=CODE,merge=1,delta=2
    25                           	psect	text14,local,class=CODE,merge=1,delta=2,group=2
    26                           	psect	text15,local,class=CODE,merge=1,delta=2,group=2
    27                           	psect	text16,local,class=CODE,merge=1,delta=2,group=2
    28                           	psect	text17,local,class=CODE,merge=1,delta=2,group=2
    29                           	psect	text18,local,class=CODE,merge=1,delta=2,group=2
    30                           	psect	text19,local,class=CODE,merge=1,delta=2,group=2
    31                           	psect	text20,local,class=CODE,merge=1,delta=2,group=2
    32                           	psect	text21,local,class=CODE,merge=1,delta=2,group=3
    33                           	psect	text22,local,class=CODE,merge=1,delta=2,group=3
    34                           	psect	text23,local,class=CODE,merge=1,delta=2,group=2
    35                           	psect	functab,global,class=ENTRY,delta=2
    36                           	psect	config,global,abs,ovrld,class=CONFIG,space=4,delta=2,noexec
    37                           	dabs	1,0x7E,2
    38  0000                     
    39                           ; Version 2.20
    40                           ; Generated 12/02/2020 GMT
    41                           ; 
    42                           ; Copyright © 2020, Microchip Technology Inc. and its subsidiaries ("Microchip")
    43                           ; All rights reserved.
    44                           ; 
    45                           ; This software is developed by Microchip Technology Inc. and its subsidiaries ("Microch
      +                          ip").
    46                           ; 
    47                           ; Redistribution and use in source and binary forms, with or without modification, are
    48                           ; permitted provided that the following conditions are met:
    49                           ; 
    50                           ;     1. Redistributions of source code must retain the above copyright notice, this lis
      +                          t of
    51                           ;        conditions and the following disclaimer.
    52                           ; 
    53                           ;     2. Redistributions in binary form must reproduce the above copyright notice, this 
      +                          list
    54                           ;        of conditions and the following disclaimer in the documentation and/or other
    55                           ;        materials provided with the distribution.
    56                           ; 
    57                           ;     3. Microchip's name may not be used to endorse or promote products derived from th
      +                          is
    58                           ;        software without specific prior written permission.
    59                           ; 
    60                           ; THIS SOFTWARE IS PROVIDED BY MICROCHIP "AS IS" AND ANY EXPRESS OR IMPLIED WARRANTIES,
    61                           ; INCLUDING, BUT NOT LIMITED TO, THE IMPLIED WARRANTIES OF MERCHANTABILITY AND FITNESS F
      +                          OR
    62                           ; PURPOSE ARE DISCLAIMED.  IN NO EVENT SHALL MICROCHIP BE LIABLE FOR ANY DIRECT, INDIREC
      +                          T,
    63                           ; INCIDENTAL, SPECIAL, EXEMPLARY, OR CONSEQUENTIAL DAMAGES (INCLUDING BUT NOT LIMITED TO
    64                           ; PROCUREMENT OF SUBSTITUTE GOODS OR SERVICES; LOSS OF USE, DATA OR PROFITS; OR BUSINESS
    65                           ; INTERRUPTION) HOWSOEVER CAUSED AND ON ANY THEORY OF LIABILITY, WHETHER IN CONTRACT, ST
      +                          RICT
    66                           ; LIABILITY, OR TORT (INCLUDING NEGLIGENCE OR OTHERWISE) ARISING IN ANY WAY OUT OF THE U
      +                          SE OF
    67                           ; THIS SOFTWARE, EVEN IF ADVISED OF THE POSSIBILITY OF SUCH DAMAGE.
    68                           ; 
    69                           ; 
    70                           ; Code-generator required, PIC16F887 Definitions
    71                           ; 
    72                           ; SFR Addresses
    73  0000                     	;# 
    74  0001                     	;# 
    75  0002                     	;# 
    76  0003                     	;# 
    77  0004                     	;# 
    78  0005                     	;# 
    79  0006                     	;# 
    80  0007                     	;# 
    81  0008                     	;# 
    82  0009                     	;# 
    83  000A                     	;# 
    84  000B                     	;# 
    85  000C                     	;# 
    86  000D                     	;# 
    87  000E                     	;# 
    88  000E                     	;# 
    89  000F                     	;# 
    90  0010                     	;# 
    91  0011                     	;# 
    92  0012                     	;# 
    93  0013                     	;# 
    94  0014                     	;# 
    95  0015                     	;# 
    96  0015                     	;# 
    97  0016                     	;# 
    98  0017                     	;# 
    99  0018                     	;# 
   100  0019                     	;# 
   101  001A                     	;# 
   102  001B                     	;# 
   103  001B                     	;# 
   104  001C                     	;# 
   105  001D                     	;# 
   106  001E                     	;# 
   107  001F                     	;# 
   108  0081                     	;# 
   109  0085                     	;# 
   110  0086                     	;# 
   111  0087                     	;# 
   112  0088                     	;# 
   113  0089                     	;# 
   114  008C                     	;# 
   115  008D                     	;# 
   116  008E                     	;# 
   117  008F                     	;# 
   118  0090                     	;# 
   119  0091                     	;# 
   120  0092                     	;# 
   121  0093                     	;# 
   122  0093                     	;# 
   123  0093                     	;# 
   124  0094                     	;# 
   125  0095                     	;# 
   126  0096                     	;# 
   127  0097                     	;# 
   128  0098                     	;# 
   129  0099                     	;# 
   130  009A                     	;# 
   131  009B                     	;# 
   132  009C                     	;# 
   133  009D                     	;# 
   134  009E                     	;# 
   135  009F                     	;# 
   136  0105                     	;# 
   137  0107                     	;# 
   138  0108                     	;# 
   139  0109                     	;# 
   140  010C                     	;# 
   141  010C                     	;# 
   142  010D                     	;# 
   143  010E                     	;# 
   144  010F                     	;# 
   145  0185                     	;# 
   146  0187                     	;# 
   147  0188                     	;# 
   148  0189                     	;# 
   149  018C                     	;# 
   150  018D                     	;# 
   151  0000                     	;# 
   152  0001                     	;# 
   153  0002                     	;# 
   154  0003                     	;# 
   155  0004                     	;# 
   156  0005                     	;# 
   157  0006                     	;# 
   158  0007                     	;# 
   159  0008                     	;# 
   160  0009                     	;# 
   161  000A                     	;# 
   162  000B                     	;# 
   163  000C                     	;# 
   164  000D                     	;# 
   165  000E                     	;# 
   166  000E                     	;# 
   167  000F                     	;# 
   168  0010                     	;# 
   169  0011                     	;# 
   170  0012                     	;# 
   171  0013                     	;# 
   172  0014                     	;# 
   173  0015                     	;# 
   174  0015                     	;# 
   175  0016                     	;# 
   176  0017                     	;# 
   177  0018                     	;# 
   178  0019                     	;# 
   179  001A                     	;# 
   180  001B                     	;# 
   181  001B                     	;# 
   182  001C                     	;# 
   183  001D                     	;# 
   184  001E                     	;# 
   185  001F                     	;# 
   186  0081                     	;# 
   187  0085                     	;# 
   188  0086                     	;# 
   189  0087                     	;# 
   190  0088                     	;# 
   191  0089                     	;# 
   192  008C                     	;# 
   193  008D                     	;# 
   194  008E                     	;# 
   195  008F                     	;# 
   196  0090                     	;# 
   197  0091                     	;# 
   198  0092                     	;# 
   199  0093                     	;# 
   200  0093                     	;# 
   201  0093                     	;# 
   202  0094                     	;# 
   203  0095                     	;# 
   204  0096                     	;# 
   205  0097                     	;# 
   206  0098                     	;# 
   207  0099                     	;# 
   208  009A                     	;# 
   209  009B                     	;# 
   210  009C                     	;# 
   211  009D                     	;# 
   212  009E                     	;# 
   213  009F                     	;# 
   214  0105                     	;# 
   215  0107                     	;# 
   216  0108                     	;# 
   217  0109                     	;# 
   218  010C                     	;# 
   219  010C                     	;# 
   220  010D                     	;# 
   221  010E                     	;# 
   222  010F                     	;# 
   223  0185                     	;# 
   224  0187                     	;# 
   225  0188                     	;# 
   226  0189                     	;# 
   227  018C                     	;# 
   228  018D                     	;# 
   229  0000                     	;# 
   230  0001                     	;# 
   231  0002                     	;# 
   232  0003                     	;# 
   233  0004                     	;# 
   234  0005                     	;# 
   235  0006                     	;# 
   236  0007                     	;# 
   237  0008                     	;# 
   238  0009                     	;# 
   239  000A                     	;# 
   240  000B                     	;# 
   241  000C                     	;# 
   242  000D                     	;# 
   243  000E                     	;# 
   244  000E                     	;# 
   245  000F                     	;# 
   246  0010                     	;# 
   247  0011                     	;# 
   248  0012                     	;# 
   249  0013                     	;# 
   250  0014                     	;# 
   251  0015                     	;# 
   252  0015                     	;# 
   253  0016                     	;# 
   254  0017                     	;# 
   255  0018                     	;# 
   256  0019                     	;# 
   257  001A                     	;# 
   258  001B                     	;# 
   259  001B                     	;# 
   260  001C                     	;# 
   261  001D                     	;# 
   262  001E                     	;# 
   263  001F                     	;# 
   264  0081                     	;# 
   265  0085                     	;# 
   266  0086                     	;# 
   267  0087                     	;# 
   268  0088                     	;# 
   269  0089                     	;# 
   270  008C                     	;# 
   271  008D                     	;# 
   272  008E                     	;# 
   273  008F                     	;# 
   274  0090                     	;# 
   275  0091                     	;# 
   276  0092                     	;# 
   277  0093                     	;# 
   278  0093                     	;# 
   279  0093                     	;# 
   280  0094                     	;# 
   281  0095                     	;# 
   282  0096                     	;# 
   283  0097                     	;# 
   284  0098                     	;# 
   285  0099                     	;# 
   286  009A                     	;# 
   287  009B                     	;# 
   288  009C                     	;# 
   289  009D                     	;# 
   290  009E                     	;# 
   291  009F                     	;# 
   292  0105                     	;# 
   293  0107                     	;# 
   294  0108                     	;# 
   295  0109                     	;# 
   296  010C                     	;# 
   297  010C                     	;# 
   298  010D                     	;# 
   299  010E                     	;# 
   300  010F                     	;# 
   301  0185                     	;# 
   302  0187                     	;# 
   303  0188                     	;# 
   304  0189                     	;# 
   305  018C                     	;# 
   306  018D                     	;# 
   307                           
   308                           	psect	strings
   309  0800                     __pstrings:
   310  0800                     stringtab:
   311  0800                     __stringtab:
   312  0800                     stringcode:	
   313                           ;	String table - string pointers are 1 byte each
   314                           
   315  0800                     stringdir:
   316  0800  3008               	movlw	high stringdir
   317  0801  008A               	movwf	10
   318  0802  0804               	movf	4,w
   319  0803  0A84               	incf	4,f
   320  0804  0782               	addwf	2,f
   321  0805                     __stringbase:
   322  0805  3400               	retlw	0
   323  0806                     __end_of__stringtab:
   324  0806                     _dpowers:
   325  0806  3401               	retlw	1
   326  0807  3400               	retlw	0
   327  0808  340A               	retlw	10
   328  0809  3400               	retlw	0
   329  080A  3464               	retlw	100
   330  080B  3400               	retlw	0
   331  080C  34E8               	retlw	232
   332  080D  3403               	retlw	3
   333  080E  3410               	retlw	16
   334  080F  3427               	retlw	39
   335  0810                     __end_of_dpowers:
   336  0013                     _SSPBUF	set	19
   337  0014                     _SSPCON	set	20
   338  0018                     _RCSTAbits	set	24
   339  0008                     _PORTD	set	8
   340  0006                     _PORTB	set	6
   341  001A                     _RCREG	set	26
   342  0019                     _TXREG	set	25
   343  0007                     _PORTCbits	set	7
   344  0065                     _RCIF	set	101
   345  0064                     _TXIF	set	100
   346  0094                     _SSPSTATbits	set	148
   347  0094                     _SSPSTAT	set	148
   348  009A                     _SPBRGH	set	154
   349  0099                     _SPBRG	set	153
   350  0098                     _TXSTAbits	set	152
   351  008F                     _OSCCONbits	set	143
   352  0088                     _TRISD	set	136
   353  0086                     _TRISB	set	134
   354  043B                     _TRISC3	set	1083
   355  043D                     _TRISC5	set	1085
   356  043A                     _TRISC2	set	1082
   357  0187                     _BAUDCTLbits	set	391
   358  0189                     _ANSELH	set	393
   359  0188                     _ANSEL	set	392
   360  0810                     STR_1:
   361  0810  3456               	retlw	86	;'V'
   362  0811  3441               	retlw	65	;'A'
   363  0812  344C               	retlw	76	;'L'
   364  0813  344F               	retlw	79	;'O'
   365  0814  3452               	retlw	82	;'R'
   366  0815  3420               	retlw	32	;' '
   367  0816  3444               	retlw	68	;'D'
   368  0817  3445               	retlw	69	;'E'
   369  0818  3420               	retlw	32	;' '
   370  0819  3450               	retlw	80	;'P'
   371  081A  344F               	retlw	79	;'O'
   372  081B  3454               	retlw	84	;'T'
   373  081C  3431               	retlw	49	;'1'
   374  081D  343A               	retlw	58	;':'
   375  081E  3420               	retlw	32	;' '
   376  081F  340D               	retlw	13
   377  0820  3400               	retlw	0
   378  0821                     STR_2:
   379  0821  3456               	retlw	86	;'V'
   380  0822  3441               	retlw	65	;'A'
   381  0823  344C               	retlw	76	;'L'
   382  0824  344F               	retlw	79	;'O'
   383  0825  3452               	retlw	82	;'R'
   384  0826  3420               	retlw	32	;' '
   385  0827  3444               	retlw	68	;'D'
   386  0828  3445               	retlw	69	;'E'
   387  0829  3420               	retlw	32	;' '
   388  082A  3450               	retlw	80	;'P'
   389  082B  344F               	retlw	79	;'O'
   390  082C  3454               	retlw	84	;'T'
   391  082D  3432               	retlw	50	;'2'
   392  082E  343A               	retlw	58	;':'
   393  082F  3420               	retlw	32	;' '
   394  0830  340D               	retlw	13
   395  0831  3400               	retlw	0
   396  0832                     STR_3:
   397  0832  3425               	retlw	37	;'%'
   398  0833  3464               	retlw	100	;'d'
   399  0834  3400               	retlw	0
   400  0832                     
   401                           	psect	cinit
   402  07EC                     start_initialization:	
   403                           ; #config settings
   404                           
   405  07EC                     __initialization:
   406                           
   407                           ; Clear objects allocated to BANK0
   408  07EC  1283               	bcf	3,5	;RP0=0, select bank0
   409  07ED  1303               	bcf	3,6	;RP1=0, select bank0
   410  07EE  01EB               	clrf	__pbssBANK0& (0+127)
   411  07EF  01EC               	clrf	(__pbssBANK0+1)& (0+127)
   412  07F0  01ED               	clrf	(__pbssBANK0+2)& (0+127)
   413  07F1  01EE               	clrf	(__pbssBANK0+3)& (0+127)
   414  07F2  01EF               	clrf	(__pbssBANK0+4)& (0+127)
   415                           
   416                           ; Clear objects allocated to BANK1
   417  07F3  1383               	bcf	3,7	;select IRP bank0
   418  07F4  30A0               	movlw	low __pbssBANK1
   419  07F5  0084               	movwf	4
   420  07F6  30DF               	movlw	low (__pbssBANK1+63)
   421  07F7  120A  158A  230A  120A  118A  	fcall	clear_ram0
   422  07FC                     end_of_initialization:	
   423                           ;End of C runtime variable initialization code
   424                           
   425  07FC                     __end_of__initialization:
   426  07FC  0183               	clrf	3
   427  07FD  120A  118A  2AA4   	ljmp	_main	;jump to C main() function
   428                           
   429                           	psect	bssBANK0
   430  006B                     __pbssBANK0:
   431  006B                     _unidades:
   432  006B                     	ds	1
   433  006C                     _decenas:
   434  006C                     	ds	1
   435  006D                     _centenas:
   436  006D                     	ds	1
   437  006E                     _VOLTAJE2:
   438  006E                     	ds	1
   439  006F                     _VOLTAJE1:
   440  006F                     	ds	1
   441                           
   442                           	psect	bssBANK1
   443  00A0                     __pbssBANK1:
   444  00A0                     _UNIDAD:
   445  00A0                     	ds	1
   446  00A1                     _DECENA:
   447  00A1                     	ds	1
   448  00A2                     _CENTENA:
   449  00A2                     	ds	1
   450  00A3                     _v3:
   451  00A3                     	ds	20
   452  00B7                     _v2:
   453  00B7                     	ds	20
   454  00CB                     _v1:
   455  00CB                     	ds	20
   456                           
   457                           	psect	clrtext
   458  0B0A                     clear_ram0:	
   459                           ;	Called with FSR containing the base address, and
   460                           ;	W with the last address+1
   461                           
   462  0B0A  0064               	clrwdt	;clear the watchdog before getting into this loop
   463  0B0B                     clrloop0:
   464  0B0B  0180               	clrf	0	;clear RAM location pointed to by FSR
   465  0B0C  0A84               	incf	4,f	;increment pointer
   466  0B0D  0604               	xorwf	4,w	;XOR with final address
   467  0B0E  1903               	btfsc	3,2	;have we reached the end yet?
   468  0B0F  3400               	retlw	0	;all done for this memory range, return
   469  0B10  0604               	xorwf	4,w	;XOR again to restore value
   470  0B11  2B0B               	goto	clrloop0	;do the next byte
   471                           
   472                           	psect	cstackCOMMON
   473  0070                     __pcstackCOMMON:
   474  0070                     ?_isdigit:
   475  0070                     ?_setup:	
   476                           ; 1 bit 
   477                           
   478  0070                     ?_spiWrite:	
   479                           ; 1 bytes @ 0x0
   480                           
   481  0070                     ??_spiWrite:	
   482                           ; 1 bytes @ 0x0
   483                           
   484  0070                     ?_spiRead:	
   485                           ; 1 bytes @ 0x0
   486                           
   487  0070                     ??_spiRead:	
   488                           ; 1 bytes @ 0x0
   489                           
   490  0070                     ?_division:	
   491                           ; 1 bytes @ 0x0
   492                           
   493  0070                     ?_strcat:	
   494                           ; 1 bytes @ 0x0
   495                           
   496  0070                     ?_spiInit:	
   497                           ; 1 bytes @ 0x0
   498                           
   499  0070                     ??_isdigit:	
   500                           ; 1 bytes @ 0x0
   501                           
   502  0070                     ?_main:	
   503                           ; 1 bytes @ 0x0
   504                           
   505  0070                     ?_putch:	
   506                           ; 1 bytes @ 0x0
   507                           
   508  0070                     ?_spiReceiveWait:	
   509                           ; 1 bytes @ 0x0
   510                           
   511  0070                     ??_spiReceiveWait:	
   512                           ; 1 bytes @ 0x0
   513                           
   514  0070                     ?___bmul:	
   515                           ; 1 bytes @ 0x0
   516                           
   517  0070                     ?_printf:	
   518                           ; 1 bytes @ 0x0
   519                           
   520  0070                     ?__Umul8_16:	
   521                           ; 2 bytes @ 0x0
   522                           
   523  0070                     ?___wmul:	
   524                           ; 2 bytes @ 0x0
   525                           
   526  0070                     ?___awdiv:	
   527                           ; 2 bytes @ 0x0
   528                           
   529  0070                     ?___lwdiv:	
   530                           ; 2 bytes @ 0x0
   531                           
   532  0070                     ?___xxtofl:	
   533                           ; 2 bytes @ 0x0
   534                           
   535  0070                     putch@info:	
   536                           ; 4 bytes @ 0x0
   537                           
   538  0070                     spiInit@sDataSample:	
   539                           ; 1 bytes @ 0x0
   540                           
   541  0070                     spiWrite@dat:	
   542                           ; 1 bytes @ 0x0
   543                           
   544  0070                     ___bmul@multiplicand:	
   545                           ; 1 bytes @ 0x0
   546                           
   547  0070                     __Umul8_16@multiplicand:	
   548                           ; 1 bytes @ 0x0
   549                           
   550  0070                     _isdigit$904:	
   551                           ; 1 bytes @ 0x0
   552                           
   553  0070                     strcat@from:	
   554                           ; 1 bytes @ 0x0
   555                           
   556  0070                     ___wmul@multiplier:	
   557                           ; 1 bytes @ 0x0
   558                           
   559  0070                     ___awdiv@divisor:	
   560                           ; 2 bytes @ 0x0
   561                           
   562  0070                     ___lwdiv@divisor:	
   563                           ; 2 bytes @ 0x0
   564                           
   565  0070                     ___xxtofl@val:	
   566                           ; 2 bytes @ 0x0
   567                           
   568                           
   569                           ; 4 bytes @ 0x0
   570  0070                     	ds	1
   571  0071                     ??_strcat:
   572  0071                     ??_putch:	
   573                           ; 1 bytes @ 0x1
   574                           
   575  0071                     ??___bmul:	
   576                           ; 1 bytes @ 0x1
   577                           
   578  0071                     spiInit@sClockIdle:	
   579                           ; 1 bytes @ 0x1
   580                           
   581  0071                     isdigit@c:	
   582                           ; 1 bytes @ 0x1
   583                           
   584                           
   585                           ; 1 bytes @ 0x1
   586  0071                     	ds	1
   587  0072                     ??__Umul8_16:
   588  0072                     spiInit@sTransmitEdge:	
   589                           ; 1 bytes @ 0x2
   590                           
   591  0072                     ___bmul@product:	
   592                           ; 1 bytes @ 0x2
   593                           
   594  0072                     strcat@to:	
   595                           ; 1 bytes @ 0x2
   596                           
   597  0072                     ___wmul@multiplicand:	
   598                           ; 1 bytes @ 0x2
   599                           
   600  0072                     ___awdiv@dividend:	
   601                           ; 2 bytes @ 0x2
   602                           
   603  0072                     ___lwdiv@dividend:	
   604                           ; 2 bytes @ 0x2
   605                           
   606                           
   607                           ; 2 bytes @ 0x2
   608  0072                     	ds	1
   609  0073                     ??_spiInit:
   610  0073                     spiInit@sType:	
   611                           ; 1 bytes @ 0x3
   612                           
   613  0073                     ___bmul@multiplier:	
   614                           ; 1 bytes @ 0x3
   615                           
   616  0073                     strcat@cp:	
   617                           ; 1 bytes @ 0x3
   618                           
   619                           
   620                           ; 1 bytes @ 0x3
   621  0073                     	ds	1
   622  0074                     ??_setup:
   623  0074                     ??___wmul:	
   624                           ; 1 bytes @ 0x4
   625                           
   626  0074                     ??___awdiv:	
   627                           ; 1 bytes @ 0x4
   628                           
   629  0074                     ??___lwdiv:	
   630                           ; 1 bytes @ 0x4
   631                           
   632  0074                     ??___xxtofl:	
   633                           ; 1 bytes @ 0x4
   634                           
   635  0074                     ___wmul@product:	
   636                           ; 1 bytes @ 0x4
   637                           
   638  0074                     __Umul8_16@product:	
   639                           ; 2 bytes @ 0x4
   640                           
   641                           
   642                           ; 2 bytes @ 0x4
   643  0074                     	ds	1
   644  0075                     ___awdiv@counter:
   645  0075                     ___lwdiv@quotient:	
   646                           ; 1 bytes @ 0x5
   647                           
   648                           
   649                           ; 2 bytes @ 0x5
   650  0075                     	ds	1
   651  0076                     ?_atoi:
   652  0076                     ___awdiv@sign:	
   653                           ; 2 bytes @ 0x6
   654                           
   655  0076                     __Umul8_16@word_mpld:	
   656                           ; 1 bytes @ 0x6
   657                           
   658                           
   659                           ; 2 bytes @ 0x6
   660  0076                     	ds	1
   661  0077                     ___lwdiv@counter:
   662  0077                     ___awdiv@quotient:	
   663                           ; 1 bytes @ 0x7
   664                           
   665                           
   666                           ; 2 bytes @ 0x7
   667  0077                     	ds	1
   668  0078                     ??_atoi:
   669  0078                     ?___lwmod:	
   670                           ; 1 bytes @ 0x8
   671                           
   672  0078                     __Umul8_16@multiplier:	
   673                           ; 2 bytes @ 0x8
   674                           
   675  0078                     ___xxtofl@sign:	
   676                           ; 1 bytes @ 0x8
   677                           
   678  0078                     ___lwmod@divisor:	
   679                           ; 1 bytes @ 0x8
   680                           
   681                           
   682                           ; 2 bytes @ 0x8
   683  0078                     	ds	1
   684  0079                     ___xxtofl@exp:
   685                           
   686                           ; 1 bytes @ 0x9
   687  0079                     	ds	1
   688  007A                     atoi@sign:
   689  007A                     ___lwmod@dividend:	
   690                           ; 1 bytes @ 0xA
   691                           
   692  007A                     ___xxtofl@arg:	
   693                           ; 2 bytes @ 0xA
   694                           
   695                           
   696                           ; 4 bytes @ 0xA
   697  007A                     	ds	1
   698  007B                     atoi@a:
   699                           
   700                           ; 2 bytes @ 0xB
   701  007B                     	ds	1
   702  007C                     ??___lwmod:
   703                           
   704                           ; 1 bytes @ 0xC
   705  007C                     	ds	1
   706  007D                     ___lwmod@counter:
   707  007D                     atoi@s:	
   708                           ; 1 bytes @ 0xD
   709                           
   710                           
   711                           ; 1 bytes @ 0xD
   712  007D                     	ds	1
   713                           
   714                           	psect	cstackBANK0
   715  0020                     __pcstackBANK0:
   716  0020                     ?__doprnt:
   717  0020                     ?___flmul:	
   718                           ; 2 bytes @ 0x0
   719                           
   720  0020                     __doprnt@f:	
   721                           ; 4 bytes @ 0x0
   722                           
   723  0020                     ___flmul@b:	
   724                           ; 1 bytes @ 0x0
   725                           
   726                           
   727                           ; 4 bytes @ 0x0
   728  0020                     	ds	1
   729  0021                     __doprnt@ap:
   730                           
   731                           ; 1 bytes @ 0x1
   732  0021                     	ds	1
   733  0022                     ??__doprnt:
   734                           
   735                           ; 1 bytes @ 0x2
   736  0022                     	ds	2
   737  0024                     ___flmul@a:
   738                           
   739                           ; 4 bytes @ 0x4
   740  0024                     	ds	1
   741  0025                     __doprnt@flag:
   742                           
   743                           ; 1 bytes @ 0x5
   744  0025                     	ds	1
   745  0026                     __doprnt@prec:
   746                           
   747                           ; 1 bytes @ 0x6
   748  0026                     	ds	1
   749  0027                     __doprnt@val:
   750                           
   751                           ; 2 bytes @ 0x7
   752  0027                     	ds	1
   753  0028                     ??___flmul:
   754                           
   755                           ; 1 bytes @ 0x8
   756  0028                     	ds	1
   757  0029                     __doprnt@c:
   758                           
   759                           ; 1 bytes @ 0x9
   760  0029                     	ds	1
   761  002A                     __doprnt@pb:
   762                           
   763                           ; 1 bytes @ 0xA
   764  002A                     	ds	1
   765  002B                     ??_printf:
   766  002B                     ?_sprintf:	
   767                           ; 1 bytes @ 0xB
   768                           
   769  002B                     sprintf@f:	
   770                           ; 2 bytes @ 0xB
   771                           
   772                           
   773                           ; 1 bytes @ 0xB
   774  002B                     	ds	2
   775  002D                     ___flmul@sign:
   776  002D                     printf@f:	
   777                           ; 1 bytes @ 0xD
   778                           
   779                           
   780                           ; 1 bytes @ 0xD
   781  002D                     	ds	1
   782  002E                     ??_sprintf:
   783  002E                     printf@ap:	
   784                           ; 1 bytes @ 0xE
   785                           
   786  002E                     ___flmul@grs:	
   787                           ; 1 bytes @ 0xE
   788                           
   789                           
   790                           ; 4 bytes @ 0xE
   791  002E                     	ds	1
   792  002F                     printf@pb:
   793                           
   794                           ; 2 bytes @ 0xF
   795  002F                     	ds	1
   796  0030                     sprintf@ap:
   797                           
   798                           ; 1 bytes @ 0x10
   799  0030                     	ds	1
   800  0031                     sprintf@wh:
   801                           
   802                           ; 1 bytes @ 0x11
   803  0031                     	ds	1
   804  0032                     ___flmul@aexp:
   805  0032                     sprintf@pb:	
   806                           ; 1 bytes @ 0x12
   807                           
   808                           
   809                           ; 2 bytes @ 0x12
   810  0032                     	ds	1
   811  0033                     ___flmul@bexp:
   812                           
   813                           ; 1 bytes @ 0x13
   814  0033                     	ds	1
   815  0034                     ___flmul@prod:
   816                           
   817                           ; 4 bytes @ 0x14
   818  0034                     	ds	4
   819  0038                     ___flmul@temp:
   820                           
   821                           ; 2 bytes @ 0x18
   822  0038                     	ds	2
   823  003A                     ?___fldiv:
   824  003A                     ___fldiv@a:	
   825                           ; 4 bytes @ 0x1A
   826                           
   827                           
   828                           ; 4 bytes @ 0x1A
   829  003A                     	ds	4
   830  003E                     ___fldiv@b:
   831                           
   832                           ; 4 bytes @ 0x1E
   833  003E                     	ds	4
   834  0042                     ??___fldiv:
   835                           
   836                           ; 1 bytes @ 0x22
   837  0042                     	ds	5
   838  0047                     ___fldiv@rem:
   839                           
   840                           ; 4 bytes @ 0x27
   841  0047                     	ds	4
   842  004B                     ___fldiv@sign:
   843                           
   844                           ; 1 bytes @ 0x2B
   845  004B                     	ds	1
   846  004C                     ___fldiv@new_exp:
   847                           
   848                           ; 2 bytes @ 0x2C
   849  004C                     	ds	2
   850  004E                     ___fldiv@grs:
   851                           
   852                           ; 4 bytes @ 0x2E
   853  004E                     	ds	4
   854  0052                     ___fldiv@bexp:
   855                           
   856                           ; 1 bytes @ 0x32
   857  0052                     	ds	1
   858  0053                     ___fldiv@aexp:
   859                           
   860                           ; 1 bytes @ 0x33
   861  0053                     	ds	1
   862  0054                     ?___fltol:
   863  0054                     ___fltol@f1:	
   864                           ; 4 bytes @ 0x34
   865                           
   866                           
   867                           ; 4 bytes @ 0x34
   868  0054                     	ds	4
   869  0058                     ??___fltol:
   870                           
   871                           ; 1 bytes @ 0x38
   872  0058                     	ds	5
   873  005D                     ___fltol@sign1:
   874                           
   875                           ; 1 bytes @ 0x3D
   876  005D                     	ds	1
   877  005E                     ___fltol@exp1:
   878                           
   879                           ; 1 bytes @ 0x3E
   880  005E                     	ds	1
   881  005F                     ??_division:
   882                           
   883                           ; 1 bytes @ 0x3F
   884  005F                     	ds	5
   885  0064                     division@variable:
   886                           
   887                           ; 1 bytes @ 0x44
   888  0064                     	ds	1
   889  0065                     division@val:
   890                           
   891                           ; 1 bytes @ 0x45
   892  0065                     	ds	1
   893  0066                     ??_main:
   894                           
   895                           ; 1 bytes @ 0x46
   896  0066                     	ds	3
   897  0069                     main@com:
   898                           
   899                           ; 2 bytes @ 0x49
   900  0069                     	ds	2
   901                           
   902                           	psect	maintext
   903  02A4                     __pmaintext:	
   904 ;;
   905 ;;Main: autosize = 0, tempsize = 3, incstack = 0, save=0
   906 ;;
   907 ;; *************** function _main *****************
   908 ;; Defined at:
   909 ;;		line 68 in file "SPI_MAESTRO.c"
   910 ;; Parameters:    Size  Location     Type
   911 ;;		None
   912 ;; Auto vars:     Size  Location     Type
   913 ;;  com             2   73[BANK0 ] int 
   914 ;; Return value:  Size  Location     Type
   915 ;;                  1    wreg      void 
   916 ;; Registers used:
   917 ;;		wreg, fsr0l, fsr0h, status,2, status,0, btemp+1, pclath, cstack
   918 ;; Tracked objects:
   919 ;;		On entry : B00/0
   920 ;;		On exit  : 0/0
   921 ;;		Unchanged: 0/0
   922 ;; Data sizes:     COMMON   BANK0   BANK1   BANK3   BANK2
   923 ;;      Params:         0       0       0       0       0
   924 ;;      Locals:         0       2       0       0       0
   925 ;;      Temps:          0       3       0       0       0
   926 ;;      Totals:         0       5       0       0       0
   927 ;;Total ram usage:        5 bytes
   928 ;; Hardware stack levels required when called:    3
   929 ;; This function calls:
   930 ;;		_atoi
   931 ;;		_division
   932 ;;		_printf
   933 ;;		_setup
   934 ;;		_spiRead
   935 ;;		_spiWrite
   936 ;;		_sprintf
   937 ;;		_strcat
   938 ;; This function is called by:
   939 ;;		Startup code after reset
   940 ;; This function uses a non-reentrant model
   941 ;;
   942                           
   943                           
   944                           ;psect for function _main
   945  02A4                     _main:
   946  02A4                     l2394:	
   947                           ;incstack = 0
   948                           ; Regs used in _main: [wreg-fsr0h+status,2+status,0+btemp+1+pclath+cstack]
   949                           
   950                           
   951                           ;SPI_MAESTRO.c: 69:     setup();
   952  02A4  120A  158A  2412  120A  118A  	fcall	_setup
   953  02A9                     l2396:
   954                           
   955                           ;SPI_MAESTRO.c: 74:        PORTCbits.RC2 = 0;
   956  02A9  1283               	bcf	3,5	;RP0=0, select bank0
   957  02AA  1303               	bcf	3,6	;RP1=0, select bank0
   958  02AB  1107               	bcf	7,2	;volatile
   959  02AC                     l2398:
   960                           
   961                           ;SPI_MAESTRO.c: 75:        _delay((unsigned long)((1)*(4000000/4000.0)));
   962  02AC  30C7               	movlw	199
   963  02AD  1283               	bcf	3,5	;RP0=0, select bank0
   964  02AE  1303               	bcf	3,6	;RP1=0, select bank0
   965  02AF  00E6               	movwf	??_main
   966  02B0                     u3217:
   967  02B0  2AB1               	nop2
   968  02B1  0BE6               	decfsz	??_main,f
   969  02B2  2AB0               	goto	u3217
   970  02B3  2AB4               	nop2
   971  02B4                     l2400:
   972                           
   973                           ;SPI_MAESTRO.c: 77:        spiWrite(0X0A);
   974  02B4  300A               	movlw	10
   975  02B5  120A  158A  22FD  120A  118A  	fcall	_spiWrite
   976  02BA                     l2402:
   977                           
   978                           ;SPI_MAESTRO.c: 78:        VOLTAJE1 = spiRead();
   979  02BA  120A  158A  231B  120A  118A  	fcall	_spiRead
   980  02BF  1283               	bcf	3,5	;RP0=0, select bank0
   981  02C0  1303               	bcf	3,6	;RP1=0, select bank0
   982  02C1  00E6               	movwf	??_main
   983  02C2  0866               	movf	??_main,w
   984  02C3  00EF               	movwf	_VOLTAJE1
   985  02C4                     l2404:
   986                           
   987                           ;SPI_MAESTRO.c: 79:        _delay((unsigned long)((1)*(4000000/4000.0)));
   988  02C4  30C7               	movlw	199
   989  02C5  1283               	bcf	3,5	;RP0=0, select bank0
   990  02C6  1303               	bcf	3,6	;RP1=0, select bank0
   991  02C7  00E6               	movwf	??_main
   992  02C8                     u3227:
   993  02C8  2AC9               	nop2
   994  02C9  0BE6               	decfsz	??_main,f
   995  02CA  2AC8               	goto	u3227
   996  02CB  2ACC               	nop2
   997                           
   998                           ;SPI_MAESTRO.c: 80:        spiWrite(0X0A);
   999  02CC  300A               	movlw	10
  1000  02CD  120A  158A  22FD  120A  118A  	fcall	_spiWrite
  1001                           
  1002                           ;SPI_MAESTRO.c: 81:        VOLTAJE2 = spiRead();
  1003  02D2  120A  158A  231B  120A  118A  	fcall	_spiRead
  1004  02D7  1283               	bcf	3,5	;RP0=0, select bank0
  1005  02D8  1303               	bcf	3,6	;RP1=0, select bank0
  1006  02D9  00E6               	movwf	??_main
  1007  02DA  0866               	movf	??_main,w
  1008  02DB  00EE               	movwf	_VOLTAJE2
  1009  02DC                     l2406:
  1010                           
  1011                           ;SPI_MAESTRO.c: 82:        _delay((unsigned long)((1)*(4000000/4000.0)));
  1012  02DC  30C7               	movlw	199
  1013  02DD  1283               	bcf	3,5	;RP0=0, select bank0
  1014  02DE  1303               	bcf	3,6	;RP1=0, select bank0
  1015  02DF  00E6               	movwf	??_main
  1016  02E0                     u3237:
  1017  02E0  2AE1               	nop2
  1018  02E1  0BE6               	decfsz	??_main,f
  1019  02E2  2AE0               	goto	u3237
  1020  02E3  2AE4               	nop2
  1021  02E4                     l2408:
  1022                           
  1023                           ;SPI_MAESTRO.c: 83:        PORTCbits.RC2 = 1;
  1024  02E4  1283               	bcf	3,5	;RP0=0, select bank0
  1025  02E5  1303               	bcf	3,6	;RP1=0, select bank0
  1026  02E6  1507               	bsf	7,2	;volatile
  1027  02E7                     l2410:
  1028                           
  1029                           ;SPI_MAESTRO.c: 85:     division(VOLTAJE1);
  1030  02E7  086F               	movf	_VOLTAJE1,w
  1031  02E8  120A  158A  2625  120A  118A  	fcall	_division
  1032  02ED                     l2412:
  1033                           
  1034                           ;SPI_MAESTRO.c: 86:        if(TXIF == 1){
  1035  02ED  1283               	bcf	3,5	;RP0=0, select bank0
  1036  02EE  1303               	bcf	3,6	;RP1=0, select bank0
  1037  02EF  1E0C               	btfss	12,4	;volatile
  1038  02F0  2AF2               	goto	u3061
  1039  02F1  2AF3               	goto	u3060
  1040  02F2                     u3061:
  1041  02F2  2B6E               	goto	l2440
  1042  02F3                     u3060:
  1043  02F3                     l2414:
  1044                           
  1045                           ;SPI_MAESTRO.c: 87:     _delay((unsigned long)((50)*(4000000/4000.0)));
  1046  02F3  3041               	movlw	65
  1047  02F4  1283               	bcf	3,5	;RP0=0, select bank0
  1048  02F5  1303               	bcf	3,6	;RP1=0, select bank0
  1049  02F6  00E7               	movwf	??_main+1
  1050  02F7  30ED               	movlw	237
  1051  02F8  00E6               	movwf	??_main
  1052  02F9                     u3247:
  1053  02F9  0BE6               	decfsz	??_main,f
  1054  02FA  2AF9               	goto	u3247
  1055  02FB  0BE7               	decfsz	??_main+1,f
  1056  02FC  2AF9               	goto	u3247
  1057  02FD  2AFE               	nop2
  1058  02FE                     l2416:
  1059                           
  1060                           ;SPI_MAESTRO.c: 88:      printf("VALOR DE POT1: \r");
  1061  02FE  300B               	movlw	(low ((STR_1-__stringbase)| (0+32768)))& (0+255)
  1062  02FF  120A  158A  2361  120A  118A  	fcall	_printf
  1063  0304                     l2418:
  1064                           
  1065                           ;SPI_MAESTRO.c: 89:      _delay((unsigned long)((50)*(4000000/4000.0)));
  1066  0304  3041               	movlw	65
  1067  0305  1283               	bcf	3,5	;RP0=0, select bank0
  1068  0306  1303               	bcf	3,6	;RP1=0, select bank0
  1069  0307  00E7               	movwf	??_main+1
  1070  0308  30ED               	movlw	237
  1071  0309  00E6               	movwf	??_main
  1072  030A                     u3257:
  1073  030A  0BE6               	decfsz	??_main,f
  1074  030B  2B0A               	goto	u3257
  1075  030C  0BE7               	decfsz	??_main+1,f
  1076  030D  2B0A               	goto	u3257
  1077  030E  2B0F               	nop2
  1078  030F                     l2420:
  1079                           
  1080                           ;SPI_MAESTRO.c: 90:     if(TXIF == 1){
  1081  030F  1283               	bcf	3,5	;RP0=0, select bank0
  1082  0310  1303               	bcf	3,6	;RP1=0, select bank0
  1083  0311  1E0C               	btfss	12,4	;volatile
  1084  0312  2B14               	goto	u3071
  1085  0313  2B15               	goto	u3070
  1086  0314                     u3071:
  1087  0314  2B17               	goto	l85
  1088  0315                     u3070:
  1089  0315                     l2422:
  1090                           
  1091                           ;SPI_MAESTRO.c: 91:         TXREG = centenas;
  1092  0315  086D               	movf	_centenas,w
  1093  0316  0099               	movwf	25	;volatile
  1094  0317                     l85:	
  1095                           ;SPI_MAESTRO.c: 92:        }
  1096                           
  1097                           
  1098                           ;SPI_MAESTRO.c: 93:     _delay((unsigned long)((50)*(4000000/4000.0)));
  1099  0317  3041               	movlw	65
  1100  0318  1283               	bcf	3,5	;RP0=0, select bank0
  1101  0319  1303               	bcf	3,6	;RP1=0, select bank0
  1102  031A  00E7               	movwf	??_main+1
  1103  031B  30ED               	movlw	237
  1104  031C  00E6               	movwf	??_main
  1105  031D                     u3267:
  1106  031D  0BE6               	decfsz	??_main,f
  1107  031E  2B1D               	goto	u3267
  1108  031F  0BE7               	decfsz	??_main+1,f
  1109  0320  2B1D               	goto	u3267
  1110  0321  2B22               	nop2
  1111  0322                     l2424:
  1112                           
  1113                           ;SPI_MAESTRO.c: 94:     if(TXIF == 1){
  1114  0322  1283               	bcf	3,5	;RP0=0, select bank0
  1115  0323  1303               	bcf	3,6	;RP1=0, select bank0
  1116  0324  1E0C               	btfss	12,4	;volatile
  1117  0325  2B27               	goto	u3081
  1118  0326  2B28               	goto	u3080
  1119  0327                     u3081:
  1120  0327  2B2A               	goto	l86
  1121  0328                     u3080:
  1122  0328                     l2426:
  1123                           
  1124                           ;SPI_MAESTRO.c: 95:         TXREG = 46;
  1125  0328  302E               	movlw	46
  1126  0329  0099               	movwf	25	;volatile
  1127  032A                     l86:	
  1128                           ;SPI_MAESTRO.c: 96:        }
  1129                           
  1130                           
  1131                           ;SPI_MAESTRO.c: 97:     _delay((unsigned long)((50)*(4000000/4000.0)));
  1132  032A  3041               	movlw	65
  1133  032B  1283               	bcf	3,5	;RP0=0, select bank0
  1134  032C  1303               	bcf	3,6	;RP1=0, select bank0
  1135  032D  00E7               	movwf	??_main+1
  1136  032E  30ED               	movlw	237
  1137  032F  00E6               	movwf	??_main
  1138  0330                     u3277:
  1139  0330  0BE6               	decfsz	??_main,f
  1140  0331  2B30               	goto	u3277
  1141  0332  0BE7               	decfsz	??_main+1,f
  1142  0333  2B30               	goto	u3277
  1143  0334  2B35               	nop2
  1144  0335                     l2428:
  1145                           
  1146                           ;SPI_MAESTRO.c: 98:     if(TXIF == 1){
  1147  0335  1283               	bcf	3,5	;RP0=0, select bank0
  1148  0336  1303               	bcf	3,6	;RP1=0, select bank0
  1149  0337  1E0C               	btfss	12,4	;volatile
  1150  0338  2B3A               	goto	u3091
  1151  0339  2B3B               	goto	u3090
  1152  033A                     u3091:
  1153  033A  2B3D               	goto	l87
  1154  033B                     u3090:
  1155  033B                     l2430:
  1156                           
  1157                           ;SPI_MAESTRO.c: 99:         TXREG = decenas;
  1158  033B  086C               	movf	_decenas,w
  1159  033C  0099               	movwf	25	;volatile
  1160  033D                     l87:	
  1161                           ;SPI_MAESTRO.c: 100:        }
  1162                           
  1163                           
  1164                           ;SPI_MAESTRO.c: 101:     _delay((unsigned long)((50)*(4000000/4000.0)));
  1165  033D  3041               	movlw	65
  1166  033E  1283               	bcf	3,5	;RP0=0, select bank0
  1167  033F  1303               	bcf	3,6	;RP1=0, select bank0
  1168  0340  00E7               	movwf	??_main+1
  1169  0341  30ED               	movlw	237
  1170  0342  00E6               	movwf	??_main
  1171  0343                     u3287:
  1172  0343  0BE6               	decfsz	??_main,f
  1173  0344  2B43               	goto	u3287
  1174  0345  0BE7               	decfsz	??_main+1,f
  1175  0346  2B43               	goto	u3287
  1176  0347  2B48               	nop2
  1177  0348                     l2432:
  1178                           
  1179                           ;SPI_MAESTRO.c: 102:     if(TXIF == 1){
  1180  0348  1283               	bcf	3,5	;RP0=0, select bank0
  1181  0349  1303               	bcf	3,6	;RP1=0, select bank0
  1182  034A  1E0C               	btfss	12,4	;volatile
  1183  034B  2B4D               	goto	u3101
  1184  034C  2B4E               	goto	u3100
  1185  034D                     u3101:
  1186  034D  2B50               	goto	l88
  1187  034E                     u3100:
  1188  034E                     l2434:
  1189                           
  1190                           ;SPI_MAESTRO.c: 103:         TXREG = unidades;
  1191  034E  086B               	movf	_unidades,w
  1192  034F  0099               	movwf	25	;volatile
  1193  0350                     l88:	
  1194                           ;SPI_MAESTRO.c: 104:        }
  1195                           
  1196                           
  1197                           ;SPI_MAESTRO.c: 105:     _delay((unsigned long)((50)*(4000000/4000.0)));
  1198  0350  3041               	movlw	65
  1199  0351  1283               	bcf	3,5	;RP0=0, select bank0
  1200  0352  1303               	bcf	3,6	;RP1=0, select bank0
  1201  0353  00E7               	movwf	??_main+1
  1202  0354  30ED               	movlw	237
  1203  0355  00E6               	movwf	??_main
  1204  0356                     u3297:
  1205  0356  0BE6               	decfsz	??_main,f
  1206  0357  2B56               	goto	u3297
  1207  0358  0BE7               	decfsz	??_main+1,f
  1208  0359  2B56               	goto	u3297
  1209  035A  2B5B               	nop2
  1210  035B                     l2436:
  1211                           
  1212                           ;SPI_MAESTRO.c: 106:     if(TXIF == 1){
  1213  035B  1283               	bcf	3,5	;RP0=0, select bank0
  1214  035C  1303               	bcf	3,6	;RP1=0, select bank0
  1215  035D  1E0C               	btfss	12,4	;volatile
  1216  035E  2B60               	goto	u3111
  1217  035F  2B61               	goto	u3110
  1218  0360                     u3111:
  1219  0360  2B63               	goto	l89
  1220  0361                     u3110:
  1221  0361                     l2438:
  1222                           
  1223                           ;SPI_MAESTRO.c: 107:         TXREG = 13;
  1224  0361  300D               	movlw	13
  1225  0362  0099               	movwf	25	;volatile
  1226  0363                     l89:	
  1227                           ;SPI_MAESTRO.c: 108:        }
  1228                           
  1229                           
  1230                           ;SPI_MAESTRO.c: 109:     _delay((unsigned long)((50)*(4000000/4000.0)));
  1231  0363  3041               	movlw	65
  1232  0364  1283               	bcf	3,5	;RP0=0, select bank0
  1233  0365  1303               	bcf	3,6	;RP1=0, select bank0
  1234  0366  00E7               	movwf	??_main+1
  1235  0367  30ED               	movlw	237
  1236  0368  00E6               	movwf	??_main
  1237  0369                     u3307:
  1238  0369  0BE6               	decfsz	??_main,f
  1239  036A  2B69               	goto	u3307
  1240  036B  0BE7               	decfsz	??_main+1,f
  1241  036C  2B69               	goto	u3307
  1242  036D  2B6E               	nop2
  1243  036E                     l2440:
  1244                           
  1245                           ;SPI_MAESTRO.c: 112:     division(VOLTAJE2);
  1246  036E  1283               	bcf	3,5	;RP0=0, select bank0
  1247  036F  1303               	bcf	3,6	;RP1=0, select bank0
  1248  0370  086E               	movf	_VOLTAJE2,w
  1249  0371  120A  158A  2625  120A  118A  	fcall	_division
  1250  0376                     l2442:
  1251                           
  1252                           ;SPI_MAESTRO.c: 113:     if(TXIF == 1){
  1253  0376  1283               	bcf	3,5	;RP0=0, select bank0
  1254  0377  1303               	bcf	3,6	;RP1=0, select bank0
  1255  0378  1E0C               	btfss	12,4	;volatile
  1256  0379  2B7B               	goto	u3121
  1257  037A  2B7C               	goto	u3120
  1258  037B                     u3121:
  1259  037B  2BF7               	goto	l96
  1260  037C                     u3120:
  1261  037C                     l2444:
  1262                           
  1263                           ;SPI_MAESTRO.c: 114:     _delay((unsigned long)((50)*(4000000/4000.0)));
  1264  037C  3041               	movlw	65
  1265  037D  1283               	bcf	3,5	;RP0=0, select bank0
  1266  037E  1303               	bcf	3,6	;RP1=0, select bank0
  1267  037F  00E7               	movwf	??_main+1
  1268  0380  30ED               	movlw	237
  1269  0381  00E6               	movwf	??_main
  1270  0382                     u3317:
  1271  0382  0BE6               	decfsz	??_main,f
  1272  0383  2B82               	goto	u3317
  1273  0384  0BE7               	decfsz	??_main+1,f
  1274  0385  2B82               	goto	u3317
  1275  0386  2B87               	nop2
  1276  0387                     l2446:
  1277                           
  1278                           ;SPI_MAESTRO.c: 115:      printf("VALOR DE POT2: \r");
  1279  0387  301C               	movlw	(low ((STR_2-__stringbase)| (0+32768)))& (0+255)
  1280  0388  120A  158A  2361  120A  118A  	fcall	_printf
  1281  038D                     l2448:
  1282                           
  1283                           ;SPI_MAESTRO.c: 116:      _delay((unsigned long)((50)*(4000000/4000.0)));
  1284  038D  3041               	movlw	65
  1285  038E  1283               	bcf	3,5	;RP0=0, select bank0
  1286  038F  1303               	bcf	3,6	;RP1=0, select bank0
  1287  0390  00E7               	movwf	??_main+1
  1288  0391  30ED               	movlw	237
  1289  0392  00E6               	movwf	??_main
  1290  0393                     u3327:
  1291  0393  0BE6               	decfsz	??_main,f
  1292  0394  2B93               	goto	u3327
  1293  0395  0BE7               	decfsz	??_main+1,f
  1294  0396  2B93               	goto	u3327
  1295  0397  2B98               	nop2
  1296  0398                     l2450:
  1297                           
  1298                           ;SPI_MAESTRO.c: 117:     if(TXIF == 1){
  1299  0398  1283               	bcf	3,5	;RP0=0, select bank0
  1300  0399  1303               	bcf	3,6	;RP1=0, select bank0
  1301  039A  1E0C               	btfss	12,4	;volatile
  1302  039B  2B9D               	goto	u3131
  1303  039C  2B9E               	goto	u3130
  1304  039D                     u3131:
  1305  039D  2BA0               	goto	l91
  1306  039E                     u3130:
  1307  039E                     l2452:
  1308                           
  1309                           ;SPI_MAESTRO.c: 118:         TXREG = centenas;
  1310  039E  086D               	movf	_centenas,w
  1311  039F  0099               	movwf	25	;volatile
  1312  03A0                     l91:	
  1313                           ;SPI_MAESTRO.c: 119:        }
  1314                           
  1315                           
  1316                           ;SPI_MAESTRO.c: 120:     _delay((unsigned long)((50)*(4000000/4000.0)));
  1317  03A0  3041               	movlw	65
  1318  03A1  1283               	bcf	3,5	;RP0=0, select bank0
  1319  03A2  1303               	bcf	3,6	;RP1=0, select bank0
  1320  03A3  00E7               	movwf	??_main+1
  1321  03A4  30ED               	movlw	237
  1322  03A5  00E6               	movwf	??_main
  1323  03A6                     u3337:
  1324  03A6  0BE6               	decfsz	??_main,f
  1325  03A7  2BA6               	goto	u3337
  1326  03A8  0BE7               	decfsz	??_main+1,f
  1327  03A9  2BA6               	goto	u3337
  1328  03AA  2BAB               	nop2
  1329  03AB                     l2454:
  1330                           
  1331                           ;SPI_MAESTRO.c: 121:     if(TXIF == 1){
  1332  03AB  1283               	bcf	3,5	;RP0=0, select bank0
  1333  03AC  1303               	bcf	3,6	;RP1=0, select bank0
  1334  03AD  1E0C               	btfss	12,4	;volatile
  1335  03AE  2BB0               	goto	u3141
  1336  03AF  2BB1               	goto	u3140
  1337  03B0                     u3141:
  1338  03B0  2BB3               	goto	l92
  1339  03B1                     u3140:
  1340  03B1                     l2456:
  1341                           
  1342                           ;SPI_MAESTRO.c: 122:         TXREG = 46;
  1343  03B1  302E               	movlw	46
  1344  03B2  0099               	movwf	25	;volatile
  1345  03B3                     l92:	
  1346                           ;SPI_MAESTRO.c: 123:        }
  1347                           
  1348                           
  1349                           ;SPI_MAESTRO.c: 124:     _delay((unsigned long)((50)*(4000000/4000.0)));
  1350  03B3  3041               	movlw	65
  1351  03B4  1283               	bcf	3,5	;RP0=0, select bank0
  1352  03B5  1303               	bcf	3,6	;RP1=0, select bank0
  1353  03B6  00E7               	movwf	??_main+1
  1354  03B7  30ED               	movlw	237
  1355  03B8  00E6               	movwf	??_main
  1356  03B9                     u3347:
  1357  03B9  0BE6               	decfsz	??_main,f
  1358  03BA  2BB9               	goto	u3347
  1359  03BB  0BE7               	decfsz	??_main+1,f
  1360  03BC  2BB9               	goto	u3347
  1361  03BD  2BBE               	nop2
  1362  03BE                     l2458:
  1363                           
  1364                           ;SPI_MAESTRO.c: 125:     if(TXIF == 1){
  1365  03BE  1283               	bcf	3,5	;RP0=0, select bank0
  1366  03BF  1303               	bcf	3,6	;RP1=0, select bank0
  1367  03C0  1E0C               	btfss	12,4	;volatile
  1368  03C1  2BC3               	goto	u3151
  1369  03C2  2BC4               	goto	u3150
  1370  03C3                     u3151:
  1371  03C3  2BC6               	goto	l93
  1372  03C4                     u3150:
  1373  03C4                     l2460:
  1374                           
  1375                           ;SPI_MAESTRO.c: 126:         TXREG = decenas;
  1376  03C4  086C               	movf	_decenas,w
  1377  03C5  0099               	movwf	25	;volatile
  1378  03C6                     l93:	
  1379                           ;SPI_MAESTRO.c: 127:        }
  1380                           
  1381                           
  1382                           ;SPI_MAESTRO.c: 128:     _delay((unsigned long)((50)*(4000000/4000.0)));
  1383  03C6  3041               	movlw	65
  1384  03C7  1283               	bcf	3,5	;RP0=0, select bank0
  1385  03C8  1303               	bcf	3,6	;RP1=0, select bank0
  1386  03C9  00E7               	movwf	??_main+1
  1387  03CA  30ED               	movlw	237
  1388  03CB  00E6               	movwf	??_main
  1389  03CC                     u3357:
  1390  03CC  0BE6               	decfsz	??_main,f
  1391  03CD  2BCC               	goto	u3357
  1392  03CE  0BE7               	decfsz	??_main+1,f
  1393  03CF  2BCC               	goto	u3357
  1394  03D0  2BD1               	nop2
  1395  03D1                     l2462:
  1396                           
  1397                           ;SPI_MAESTRO.c: 129:     if(TXIF == 1){
  1398  03D1  1283               	bcf	3,5	;RP0=0, select bank0
  1399  03D2  1303               	bcf	3,6	;RP1=0, select bank0
  1400  03D3  1E0C               	btfss	12,4	;volatile
  1401  03D4  2BD6               	goto	u3161
  1402  03D5  2BD7               	goto	u3160
  1403  03D6                     u3161:
  1404  03D6  2BD9               	goto	l94
  1405  03D7                     u3160:
  1406  03D7                     l2464:
  1407                           
  1408                           ;SPI_MAESTRO.c: 130:         TXREG = unidades;
  1409  03D7  086B               	movf	_unidades,w
  1410  03D8  0099               	movwf	25	;volatile
  1411  03D9                     l94:	
  1412                           ;SPI_MAESTRO.c: 131:        }
  1413                           
  1414                           
  1415                           ;SPI_MAESTRO.c: 132:     _delay((unsigned long)((50)*(4000000/4000.0)));
  1416  03D9  3041               	movlw	65
  1417  03DA  1283               	bcf	3,5	;RP0=0, select bank0
  1418  03DB  1303               	bcf	3,6	;RP1=0, select bank0
  1419  03DC  00E7               	movwf	??_main+1
  1420  03DD  30ED               	movlw	237
  1421  03DE  00E6               	movwf	??_main
  1422  03DF                     u3367:
  1423  03DF  0BE6               	decfsz	??_main,f
  1424  03E0  2BDF               	goto	u3367
  1425  03E1  0BE7               	decfsz	??_main+1,f
  1426  03E2  2BDF               	goto	u3367
  1427  03E3  2BE4               	nop2
  1428  03E4                     l2466:
  1429                           
  1430                           ;SPI_MAESTRO.c: 133:     if(TXIF == 1){
  1431  03E4  1283               	bcf	3,5	;RP0=0, select bank0
  1432  03E5  1303               	bcf	3,6	;RP1=0, select bank0
  1433  03E6  1E0C               	btfss	12,4	;volatile
  1434  03E7  2BE9               	goto	u3171
  1435  03E8  2BEA               	goto	u3170
  1436  03E9                     u3171:
  1437  03E9  2BEC               	goto	l95
  1438  03EA                     u3170:
  1439  03EA                     l2468:
  1440                           
  1441                           ;SPI_MAESTRO.c: 134:         TXREG = 13;
  1442  03EA  300D               	movlw	13
  1443  03EB  0099               	movwf	25	;volatile
  1444  03EC                     l95:	
  1445                           ;SPI_MAESTRO.c: 135:     }
  1446                           
  1447                           
  1448                           ;SPI_MAESTRO.c: 136:     _delay((unsigned long)((50)*(4000000/4000.0)));
  1449  03EC  3041               	movlw	65
  1450  03ED  1283               	bcf	3,5	;RP0=0, select bank0
  1451  03EE  1303               	bcf	3,6	;RP1=0, select bank0
  1452  03EF  00E7               	movwf	??_main+1
  1453  03F0  30ED               	movlw	237
  1454  03F1  00E6               	movwf	??_main
  1455  03F2                     u3377:
  1456  03F2  0BE6               	decfsz	??_main,f
  1457  03F3  2BF2               	goto	u3377
  1458  03F4  0BE7               	decfsz	??_main+1,f
  1459  03F5  2BF2               	goto	u3377
  1460  03F6  2BF7               	nop2
  1461  03F7                     l96:
  1462  03F7  1283               	bcf	3,5	;RP0=0, select bank0
  1463  03F8  1303               	bcf	3,6	;RP1=0, select bank0
  1464  03F9  1E8C               	btfss	12,5	;volatile
  1465  03FA  2BFC               	goto	u3181
  1466  03FB  2BFD               	goto	u3180
  1467  03FC                     u3181:
  1468  03FC  2BF7               	goto	l96
  1469  03FD                     u3180:
  1470  03FD                     l2470:
  1471                           
  1472                           ;SPI_MAESTRO.c: 140:     CENTENA = RCREG - 48;
  1473  03FD  081A               	movf	26,w	;volatile
  1474  03FE  3ED0               	addlw	208
  1475  03FF  00E6               	movwf	??_main
  1476  0400  0866               	movf	??_main,w
  1477  0401  1683               	bsf	3,5	;RP0=1, select bank1
  1478  0402  1303               	bcf	3,6	;RP1=0, select bank1
  1479  0403  00A2               	movwf	_CENTENA^(0+128)
  1480  0404                     l99:	
  1481                           ;SPI_MAESTRO.c: 141:     while (RCIF == 0);
  1482                           
  1483  0404  1283               	bcf	3,5	;RP0=0, select bank0
  1484  0405  1E8C               	btfss	12,5	;volatile
  1485  0406  2C08               	goto	u3191
  1486  0407  2C09               	goto	u3190
  1487  0408                     u3191:
  1488  0408  2C04               	goto	l99
  1489  0409                     u3190:
  1490  0409                     l2472:
  1491                           
  1492                           ;SPI_MAESTRO.c: 142:     DECENA = RCREG - 48;
  1493  0409  081A               	movf	26,w	;volatile
  1494  040A  3ED0               	addlw	208
  1495  040B  00E6               	movwf	??_main
  1496  040C  0866               	movf	??_main,w
  1497  040D  1683               	bsf	3,5	;RP0=1, select bank1
  1498  040E  1303               	bcf	3,6	;RP1=0, select bank1
  1499  040F  00A1               	movwf	_DECENA^(0+128)
  1500  0410                     l102:	
  1501                           ;SPI_MAESTRO.c: 143:     while (RCIF == 0);
  1502                           
  1503  0410  1283               	bcf	3,5	;RP0=0, select bank0
  1504  0411  1E8C               	btfss	12,5	;volatile
  1505  0412  2C14               	goto	u3201
  1506  0413  2C15               	goto	u3200
  1507  0414                     u3201:
  1508  0414  2C10               	goto	l102
  1509  0415                     u3200:
  1510  0415                     l2474:
  1511                           
  1512                           ;SPI_MAESTRO.c: 144:     UNIDAD = RCREG - 48;
  1513  0415  081A               	movf	26,w	;volatile
  1514  0416  3ED0               	addlw	208
  1515  0417  00E6               	movwf	??_main
  1516  0418  0866               	movf	??_main,w
  1517  0419  1683               	bsf	3,5	;RP0=1, select bank1
  1518  041A  1303               	bcf	3,6	;RP1=0, select bank1
  1519  041B  00A0               	movwf	_UNIDAD^(0+128)
  1520  041C                     l2476:
  1521                           
  1522                           ;SPI_MAESTRO.c: 145:     sprintf(v1, "%d", CENTENA);
  1523  041C  302D               	movlw	(low ((STR_3-__stringbase)| (0+32768)))& (0+255)
  1524  041D  1283               	bcf	3,5	;RP0=0, select bank0
  1525  041E  1303               	bcf	3,6	;RP1=0, select bank0
  1526  041F  00E6               	movwf	??_main
  1527  0420  0866               	movf	??_main,w
  1528  0421  00AB               	movwf	sprintf@f
  1529  0422  1683               	bsf	3,5	;RP0=1, select bank1
  1530  0423  1303               	bcf	3,6	;RP1=0, select bank1
  1531  0424  0822               	movf	_CENTENA^(0+128),w
  1532  0425  1283               	bcf	3,5	;RP0=0, select bank0
  1533  0426  1303               	bcf	3,6	;RP1=0, select bank0
  1534  0427  00E7               	movwf	??_main+1
  1535  0428  01E8               	clrf	??_main+2
  1536  0429  0867               	movf	??_main+1,w
  1537  042A  00AC               	movwf	?_sprintf+1
  1538  042B  0868               	movf	??_main+2,w
  1539  042C  00AD               	movwf	?_sprintf+2
  1540  042D  30CB               	movlw	(low (_v1| 0))& (0+255)
  1541  042E  120A  158A  237C  120A  118A  	fcall	_sprintf
  1542  0433                     l2478:
  1543                           
  1544                           ;SPI_MAESTRO.c: 146:     sprintf(v2, "%d", DECENA);
  1545  0433  302D               	movlw	(low ((STR_3-__stringbase)| (0+32768)))& (0+255)
  1546  0434  1283               	bcf	3,5	;RP0=0, select bank0
  1547  0435  1303               	bcf	3,6	;RP1=0, select bank0
  1548  0436  00E6               	movwf	??_main
  1549  0437  0866               	movf	??_main,w
  1550  0438  00AB               	movwf	sprintf@f
  1551  0439  1683               	bsf	3,5	;RP0=1, select bank1
  1552  043A  1303               	bcf	3,6	;RP1=0, select bank1
  1553  043B  0821               	movf	_DECENA^(0+128),w
  1554  043C  1283               	bcf	3,5	;RP0=0, select bank0
  1555  043D  1303               	bcf	3,6	;RP1=0, select bank0
  1556  043E  00E7               	movwf	??_main+1
  1557  043F  01E8               	clrf	??_main+2
  1558  0440  0867               	movf	??_main+1,w
  1559  0441  00AC               	movwf	?_sprintf+1
  1560  0442  0868               	movf	??_main+2,w
  1561  0443  00AD               	movwf	?_sprintf+2
  1562  0444  30B7               	movlw	(low (_v2| 0))& (0+255)
  1563  0445  120A  158A  237C  120A  118A  	fcall	_sprintf
  1564  044A                     l2480:
  1565                           
  1566                           ;SPI_MAESTRO.c: 147:     sprintf(v3, "%d", UNIDAD);
  1567  044A  302D               	movlw	(low ((STR_3-__stringbase)| (0+32768)))& (0+255)
  1568  044B  1283               	bcf	3,5	;RP0=0, select bank0
  1569  044C  1303               	bcf	3,6	;RP1=0, select bank0
  1570  044D  00E6               	movwf	??_main
  1571  044E  0866               	movf	??_main,w
  1572  044F  00AB               	movwf	sprintf@f
  1573  0450  1683               	bsf	3,5	;RP0=1, select bank1
  1574  0451  1303               	bcf	3,6	;RP1=0, select bank1
  1575  0452  0820               	movf	_UNIDAD^(0+128),w
  1576  0453  1283               	bcf	3,5	;RP0=0, select bank0
  1577  0454  1303               	bcf	3,6	;RP1=0, select bank0
  1578  0455  00E7               	movwf	??_main+1
  1579  0456  01E8               	clrf	??_main+2
  1580  0457  0867               	movf	??_main+1,w
  1581  0458  00AC               	movwf	?_sprintf+1
  1582  0459  0868               	movf	??_main+2,w
  1583  045A  00AD               	movwf	?_sprintf+2
  1584  045B  30A3               	movlw	(low (_v3| 0))& (0+255)
  1585  045C  120A  158A  237C  120A  118A  	fcall	_sprintf
  1586  0461                     l2482:
  1587                           
  1588                           ;SPI_MAESTRO.c: 148:     strcat(v1, v2);
  1589  0461  30B7               	movlw	(low (_v2| 0))& (0+255)
  1590  0462  1283               	bcf	3,5	;RP0=0, select bank0
  1591  0463  1303               	bcf	3,6	;RP1=0, select bank0
  1592  0464  00E6               	movwf	??_main
  1593  0465  0866               	movf	??_main,w
  1594  0466  00F0               	movwf	strcat@from
  1595  0467  30CB               	movlw	(low (_v1| 0))& (0+255)
  1596  0468  120A  158A  23E9  120A  118A  	fcall	_strcat
  1597  046D                     l2484:
  1598                           
  1599                           ;SPI_MAESTRO.c: 149:     strcat(v1, v3);
  1600  046D  30A3               	movlw	(low (_v3| 0))& (0+255)
  1601  046E  1283               	bcf	3,5	;RP0=0, select bank0
  1602  046F  1303               	bcf	3,6	;RP1=0, select bank0
  1603  0470  00E6               	movwf	??_main
  1604  0471  0866               	movf	??_main,w
  1605  0472  00F0               	movwf	strcat@from
  1606  0473  30CB               	movlw	(low (_v1| 0))& (0+255)
  1607  0474  120A  158A  23E9  120A  118A  	fcall	_strcat
  1608  0479                     l2486:
  1609                           
  1610                           ;SPI_MAESTRO.c: 150:     int com = atoi(v1);
  1611  0479  30CB               	movlw	(low (_v1| 0))& (0+255)
  1612  047A  120A  158A  252E  120A  118A  	fcall	_atoi
  1613  047F  0877               	movf	?_atoi+1,w
  1614  0480  1283               	bcf	3,5	;RP0=0, select bank0
  1615  0481  1303               	bcf	3,6	;RP1=0, select bank0
  1616  0482  00EA               	movwf	main@com+1
  1617  0483  0876               	movf	?_atoi,w
  1618  0484  00E9               	movwf	main@com
  1619  0485                     l2488:
  1620                           
  1621                           ;SPI_MAESTRO.c: 151:     PORTB = com;
  1622  0485  0869               	movf	main@com,w
  1623  0486  0086               	movwf	6	;volatile
  1624  0487  2AA9               	goto	l2396
  1625  0488  120A  118A  2800   	ljmp	start
  1626  048B                     __end_of_main:
  1627                           
  1628                           	psect	text1
  1629  0BE9                     __ptext1:	
  1630 ;; *************** function _strcat *****************
  1631 ;; Defined at:
  1632 ;;		line 8 in file "C:\Program Files\Microchip\xc8\v2.31\pic\sources\c90\common\strcat.c"
  1633 ;; Parameters:    Size  Location     Type
  1634 ;;  to              1    wreg     PTR unsigned char 
  1635 ;;		 -> v1(20), 
  1636 ;;  from            1    0[COMMON] PTR const unsigned char 
  1637 ;;		 -> v3(20), v2(20), 
  1638 ;; Auto vars:     Size  Location     Type
  1639 ;;  to              1    2[COMMON] PTR unsigned char 
  1640 ;;		 -> v1(20), 
  1641 ;;  cp              1    3[COMMON] PTR unsigned char 
  1642 ;;		 -> v1(20), 
  1643 ;; Return value:  Size  Location     Type
  1644 ;;                  1    wreg      PTR unsigned char 
  1645 ;; Registers used:
  1646 ;;		wreg, fsr0l, fsr0h, status,2, status,0
  1647 ;; Tracked objects:
  1648 ;;		On entry : 0/0
  1649 ;;		On exit  : 0/0
  1650 ;;		Unchanged: 0/0
  1651 ;; Data sizes:     COMMON   BANK0   BANK1   BANK3   BANK2
  1652 ;;      Params:         1       0       0       0       0
  1653 ;;      Locals:         2       0       0       0       0
  1654 ;;      Temps:          1       0       0       0       0
  1655 ;;      Totals:         4       0       0       0       0
  1656 ;;Total ram usage:        4 bytes
  1657 ;; Hardware stack levels used:    1
  1658 ;; This function calls:
  1659 ;;		Nothing
  1660 ;; This function is called by:
  1661 ;;		_main
  1662 ;; This function uses a non-reentrant model
  1663 ;;
  1664                           
  1665                           
  1666                           ;psect for function _strcat
  1667  0BE9                     _strcat:
  1668                           
  1669                           ;incstack = 0
  1670                           ; Regs used in _strcat: [wreg-fsr0h+status,2+status,0]
  1671                           ;strcat@to stored from wreg
  1672  0BE9  00F2               	movwf	strcat@to
  1673  0BEA                     l2350:
  1674  0BEA  0872               	movf	strcat@to,w
  1675  0BEB  00F1               	movwf	??_strcat
  1676  0BEC  0871               	movf	??_strcat,w
  1677  0BED  00F3               	movwf	strcat@cp
  1678  0BEE  2BF3               	goto	l2354
  1679  0BEF                     l2352:
  1680  0BEF  3001               	movlw	1
  1681  0BF0  00F1               	movwf	??_strcat
  1682  0BF1  0871               	movf	??_strcat,w
  1683  0BF2  07F3               	addwf	strcat@cp,f
  1684  0BF3                     l2354:
  1685  0BF3  0873               	movf	strcat@cp,w
  1686  0BF4  0084               	movwf	4
  1687  0BF5  1383               	bcf	3,7	;select IRP bank0
  1688  0BF6  0800               	movf	0,w
  1689  0BF7  1D03               	btfss	3,2
  1690  0BF8  2BFA               	goto	u2981
  1691  0BF9  2BFB               	goto	u2980
  1692  0BFA                     u2981:
  1693  0BFA  2BEF               	goto	l2352
  1694  0BFB                     u2980:
  1695  0BFB  2C04               	goto	l2358
  1696  0BFC                     l2356:
  1697  0BFC  3001               	movlw	1
  1698  0BFD  00F1               	movwf	??_strcat
  1699  0BFE  0871               	movf	??_strcat,w
  1700  0BFF  07F3               	addwf	strcat@cp,f
  1701  0C00  3001               	movlw	1
  1702  0C01  00F1               	movwf	??_strcat
  1703  0C02  0871               	movf	??_strcat,w
  1704  0C03  07F0               	addwf	strcat@from,f
  1705  0C04                     l2358:
  1706  0C04  0870               	movf	strcat@from,w
  1707  0C05  0084               	movwf	4
  1708  0C06  0800               	movf	0,w
  1709  0C07  00F1               	movwf	??_strcat
  1710  0C08  0873               	movf	strcat@cp,w
  1711  0C09  0084               	movwf	4
  1712  0C0A  0871               	movf	??_strcat,w
  1713  0C0B  0080               	movwf	0
  1714  0C0C  0800               	movf	0,w
  1715  0C0D  1D03               	btfss	3,2
  1716  0C0E  2C10               	goto	u2991
  1717  0C0F  2C11               	goto	u2990
  1718  0C10                     u2991:
  1719  0C10  2BFC               	goto	l2356
  1720  0C11                     u2990:
  1721  0C11                     l770:
  1722  0C11  0008               	return
  1723  0C12                     __end_of_strcat:
  1724                           
  1725                           	psect	text2
  1726  0B7C                     __ptext2:	
  1727 ;; *************** function _sprintf *****************
  1728 ;; Defined at:
  1729 ;;		line 13 in file "C:\Program Files\Microchip\xc8\v2.31\pic\sources\c90\common\sprintf.c"
  1730 ;; Parameters:    Size  Location     Type
  1731 ;;  wh              1    wreg     PTR unsigned char 
  1732 ;;		 -> v3(20), v2(20), v1(20), 
  1733 ;;  f               1   11[BANK0 ] PTR const unsigned char 
  1734 ;;		 -> STR_5(3), STR_4(3), STR_3(3), 
  1735 ;; Auto vars:     Size  Location     Type
  1736 ;;  wh              1   17[BANK0 ] PTR unsigned char 
  1737 ;;		 -> v3(20), v2(20), v1(20), 
  1738 ;;  pb              2   18[BANK0 ] struct __prbuf
  1739 ;;  ap              1   16[BANK0 ] PTR void [1]
  1740 ;;		 -> ?_sprintf(2), ?_printf(2), 
  1741 ;; Return value:  Size  Location     Type
  1742 ;;                  2   11[BANK0 ] int 
  1743 ;; Registers used:
  1744 ;;		wreg, fsr0l, fsr0h, status,2, status,0, btemp+1, pclath, cstack
  1745 ;; Tracked objects:
  1746 ;;		On entry : 0/0
  1747 ;;		On exit  : 0/0
  1748 ;;		Unchanged: 0/0
  1749 ;; Data sizes:     COMMON   BANK0   BANK1   BANK3   BANK2
  1750 ;;      Params:         0       3       0       0       0
  1751 ;;      Locals:         0       4       0       0       0
  1752 ;;      Temps:          0       2       0       0       0
  1753 ;;      Totals:         0       9       0       0       0
  1754 ;;Total ram usage:        9 bytes
  1755 ;; Hardware stack levels used:    1
  1756 ;; Hardware stack levels required when called:    2
  1757 ;; This function calls:
  1758 ;;		__doprnt
  1759 ;; This function is called by:
  1760 ;;		_main
  1761 ;; This function uses a non-reentrant model
  1762 ;;
  1763                           
  1764                           
  1765                           ;psect for function _sprintf
  1766  0B7C                     _sprintf:
  1767                           
  1768                           ;incstack = 0
  1769                           ; Regs used in _sprintf: [wreg-fsr0h+status,2+status,0+btemp+1+pclath+cstack]
  1770                           ;sprintf@wh stored from wreg
  1771  0B7C  1283               	bcf	3,5	;RP0=0, select bank0
  1772  0B7D  1303               	bcf	3,6	;RP1=0, select bank0
  1773  0B7E  00B1               	movwf	sprintf@wh
  1774  0B7F                     l2338:
  1775  0B7F  0831               	movf	sprintf@wh,w
  1776  0B80  00AE               	movwf	??_sprintf
  1777  0B81  082E               	movf	??_sprintf,w
  1778  0B82  00B2               	movwf	sprintf@pb
  1779  0B83                     l2340:
  1780  0B83  01B3               	clrf	low ((sprintf@pb| 0+1))
  1781  0B84                     l2342:
  1782  0B84  302C               	movlw	(low ((?_sprintf| 0+1)))& (0+255)
  1783  0B85  00AE               	movwf	??_sprintf
  1784  0B86  082E               	movf	??_sprintf,w
  1785  0B87  00B0               	movwf	sprintf@ap
  1786  0B88                     l2344:
  1787  0B88  082B               	movf	sprintf@f,w
  1788  0B89  00AE               	movwf	??_sprintf
  1789  0B8A  082E               	movf	??_sprintf,w
  1790  0B8B  00A0               	movwf	__doprnt@f
  1791  0B8C  3030               	movlw	(low (sprintf@ap| 0))& (0+255)
  1792  0B8D  00AF               	movwf	??_sprintf+1
  1793  0B8E  082F               	movf	??_sprintf+1,w
  1794  0B8F  00A1               	movwf	__doprnt@ap
  1795  0B90  3032               	movlw	(low (sprintf@pb| 0))& (0+255)
  1796  0B91  120A  158A  26CC  120A  158A  	fcall	__doprnt
  1797  0B96                     l2346:
  1798  0B96  1283               	bcf	3,5	;RP0=0, select bank0
  1799  0B97  1303               	bcf	3,6	;RP1=0, select bank0
  1800  0B98  0832               	movf	sprintf@pb,w
  1801  0B99  0084               	movwf	4
  1802  0B9A  1383               	bcf	3,7	;select IRP bank0
  1803  0B9B  0180               	clrf	0
  1804  0B9C                     l761:
  1805  0B9C  0008               	return
  1806  0B9D                     __end_of_sprintf:
  1807                           
  1808                           	psect	text3
  1809  0AFD                     __ptext3:	
  1810 ;; *************** function _spiWrite *****************
  1811 ;; Defined at:
  1812 ;;		line 34 in file "SPI.c"
  1813 ;; Parameters:    Size  Location     Type
  1814 ;;  dat             1    wreg     unsigned char 
  1815 ;; Auto vars:     Size  Location     Type
  1816 ;;  dat             1    0[COMMON] unsigned char 
  1817 ;; Return value:  Size  Location     Type
  1818 ;;                  1    wreg      void 
  1819 ;; Registers used:
  1820 ;;		wreg
  1821 ;; Tracked objects:
  1822 ;;		On entry : 0/0
  1823 ;;		On exit  : 0/0
  1824 ;;		Unchanged: 0/0
  1825 ;; Data sizes:     COMMON   BANK0   BANK1   BANK3   BANK2
  1826 ;;      Params:         0       0       0       0       0
  1827 ;;      Locals:         1       0       0       0       0
  1828 ;;      Temps:          0       0       0       0       0
  1829 ;;      Totals:         1       0       0       0       0
  1830 ;;Total ram usage:        1 bytes
  1831 ;; Hardware stack levels used:    1
  1832 ;; This function calls:
  1833 ;;		Nothing
  1834 ;; This function is called by:
  1835 ;;		_main
  1836 ;; This function uses a non-reentrant model
  1837 ;;
  1838                           
  1839                           
  1840                           ;psect for function _spiWrite
  1841  0AFD                     _spiWrite:
  1842                           
  1843                           ;incstack = 0
  1844                           ; Regs used in _spiWrite: [wreg]
  1845                           ;spiWrite@dat stored from wreg
  1846  0AFD  00F0               	movwf	spiWrite@dat
  1847  0AFE                     l2302:
  1848                           
  1849                           ;SPI.c: 34: void spiWrite(char dat);SPI.c: 35: {;SPI.c: 36:     SSPBUF = dat;
  1850  0AFE  0870               	movf	spiWrite@dat,w
  1851  0AFF  1283               	bcf	3,5	;RP0=0, select bank0
  1852  0B00  1303               	bcf	3,6	;RP1=0, select bank0
  1853  0B01  0093               	movwf	19	;volatile
  1854  0B02                     l145:
  1855  0B02  0008               	return
  1856  0B03                     __end_of_spiWrite:
  1857                           
  1858                           	psect	text4
  1859  0B1B                     __ptext4:	
  1860 ;; *************** function _spiRead *****************
  1861 ;; Defined at:
  1862 ;;		line 47 in file "SPI.c"
  1863 ;; Parameters:    Size  Location     Type
  1864 ;;		None
  1865 ;; Auto vars:     Size  Location     Type
  1866 ;;		None
  1867 ;; Return value:  Size  Location     Type
  1868 ;;                  1    wreg      unsigned char 
  1869 ;; Registers used:
  1870 ;;		wreg, status,2, status,0, pclath, cstack
  1871 ;; Tracked objects:
  1872 ;;		On entry : 0/0
  1873 ;;		On exit  : 0/0
  1874 ;;		Unchanged: 0/0
  1875 ;; Data sizes:     COMMON   BANK0   BANK1   BANK3   BANK2
  1876 ;;      Params:         0       0       0       0       0
  1877 ;;      Locals:         0       0       0       0       0
  1878 ;;      Temps:          0       0       0       0       0
  1879 ;;      Totals:         0       0       0       0       0
  1880 ;;Total ram usage:        0 bytes
  1881 ;; Hardware stack levels used:    1
  1882 ;; Hardware stack levels required when called:    1
  1883 ;; This function calls:
  1884 ;;		_spiReceiveWait
  1885 ;; This function is called by:
  1886 ;;		_main
  1887 ;; This function uses a non-reentrant model
  1888 ;;
  1889                           
  1890                           
  1891                           ;psect for function _spiRead
  1892  0B1B                     _spiRead:
  1893  0B1B                     l2304:	
  1894                           ;incstack = 0
  1895                           ; Regs used in _spiRead: [wreg+status,2+status,0+pclath+cstack]
  1896                           
  1897                           
  1898                           ;SPI.c: 49:     spiReceiveWait();
  1899  0B1B  120A  158A  2303  120A  158A  	fcall	_spiReceiveWait
  1900  0B20                     l2306:
  1901                           
  1902                           ;SPI.c: 50:     return(SSPBUF);
  1903  0B20  1283               	bcf	3,5	;RP0=0, select bank0
  1904  0B21  1303               	bcf	3,6	;RP1=0, select bank0
  1905  0B22  0813               	movf	19,w	;volatile
  1906  0B23                     l153:
  1907  0B23  0008               	return
  1908  0B24                     __end_of_spiRead:
  1909                           
  1910                           	psect	text5
  1911  0B03                     __ptext5:	
  1912 ;; *************** function _spiReceiveWait *****************
  1913 ;; Defined at:
  1914 ;;		line 29 in file "SPI.c"
  1915 ;; Parameters:    Size  Location     Type
  1916 ;;		None
  1917 ;; Auto vars:     Size  Location     Type
  1918 ;;		None
  1919 ;; Return value:  Size  Location     Type
  1920 ;;                  1    wreg      void 
  1921 ;; Registers used:
  1922 ;;		None
  1923 ;; Tracked objects:
  1924 ;;		On entry : 0/0
  1925 ;;		On exit  : 0/0
  1926 ;;		Unchanged: 0/0
  1927 ;; Data sizes:     COMMON   BANK0   BANK1   BANK3   BANK2
  1928 ;;      Params:         0       0       0       0       0
  1929 ;;      Locals:         0       0       0       0       0
  1930 ;;      Temps:          0       0       0       0       0
  1931 ;;      Totals:         0       0       0       0       0
  1932 ;;Total ram usage:        0 bytes
  1933 ;; Hardware stack levels used:    1
  1934 ;; This function calls:
  1935 ;;		Nothing
  1936 ;; This function is called by:
  1937 ;;		_spiRead
  1938 ;; This function uses a non-reentrant model
  1939 ;;
  1940                           
  1941                           
  1942                           ;psect for function _spiReceiveWait
  1943  0B03                     _spiReceiveWait:
  1944  0B03                     l1748:	
  1945                           ;incstack = 0
  1946                           ; Regs used in _spiReceiveWait: []
  1947                           
  1948  0B03                     l139:	
  1949                           ;SPI.c: 31:     while ( !SSPSTATbits.BF );
  1950                           
  1951  0B03  1683               	bsf	3,5	;RP0=1, select bank1
  1952  0B04  1303               	bcf	3,6	;RP1=0, select bank1
  1953  0B05  1C14               	btfss	20,0	;volatile
  1954  0B06  2B08               	goto	u1791
  1955  0B07  2B09               	goto	u1790
  1956  0B08                     u1791:
  1957  0B08  2B03               	goto	l139
  1958  0B09                     u1790:
  1959  0B09                     l142:
  1960  0B09  0008               	return
  1961  0B0A                     __end_of_spiReceiveWait:
  1962                           
  1963                           	psect	text6
  1964  0C12                     __ptext6:	
  1965 ;; *************** function _setup *****************
  1966 ;; Defined at:
  1967 ;;		line 158 in file "SPI_MAESTRO.c"
  1968 ;; Parameters:    Size  Location     Type
  1969 ;;		None
  1970 ;; Auto vars:     Size  Location     Type
  1971 ;;		None
  1972 ;; Return value:  Size  Location     Type
  1973 ;;                  1    wreg      void 
  1974 ;; Registers used:
  1975 ;;		wreg, status,2, status,0, pclath, cstack
  1976 ;; Tracked objects:
  1977 ;;		On entry : 0/0
  1978 ;;		On exit  : 0/0
  1979 ;;		Unchanged: 0/0
  1980 ;; Data sizes:     COMMON   BANK0   BANK1   BANK3   BANK2
  1981 ;;      Params:         0       0       0       0       0
  1982 ;;      Locals:         0       0       0       0       0
  1983 ;;      Temps:          0       0       0       0       0
  1984 ;;      Totals:         0       0       0       0       0
  1985 ;;Total ram usage:        0 bytes
  1986 ;; Hardware stack levels used:    1
  1987 ;; Hardware stack levels required when called:    1
  1988 ;; This function calls:
  1989 ;;		_spiInit
  1990 ;; This function is called by:
  1991 ;;		_main
  1992 ;; This function uses a non-reentrant model
  1993 ;;
  1994                           
  1995                           
  1996                           ;psect for function _setup
  1997  0C12                     _setup:
  1998  0C12                     l2268:	
  1999                           ;incstack = 0
  2000                           ; Regs used in _setup: [wreg+status,2+status,0+pclath+cstack]
  2001                           
  2002                           
  2003                           ;SPI_MAESTRO.c: 159:     ANSEL = 0;
  2004  0C12  1683               	bsf	3,5	;RP0=1, select bank3
  2005  0C13  1703               	bsf	3,6	;RP1=1, select bank3
  2006  0C14  0188               	clrf	8	;volatile
  2007                           
  2008                           ;SPI_MAESTRO.c: 160:     ANSELH = 0;
  2009  0C15  0189               	clrf	9	;volatile
  2010  0C16                     l2270:
  2011                           
  2012                           ;SPI_MAESTRO.c: 161:     TRISC2 = 0;
  2013  0C16  1683               	bsf	3,5	;RP0=1, select bank1
  2014  0C17  1303               	bcf	3,6	;RP1=0, select bank1
  2015  0C18  1107               	bcf	7,2	;volatile
  2016                           
  2017                           ;SPI_MAESTRO.c: 162:     TRISB = 0;
  2018  0C19  0186               	clrf	6	;volatile
  2019                           
  2020                           ;SPI_MAESTRO.c: 163:     TRISD = 0;
  2021  0C1A  0188               	clrf	8	;volatile
  2022                           
  2023                           ;SPI_MAESTRO.c: 164:     PORTB = 0;
  2024  0C1B  1283               	bcf	3,5	;RP0=0, select bank0
  2025  0C1C  1303               	bcf	3,6	;RP1=0, select bank0
  2026  0C1D  0186               	clrf	6	;volatile
  2027                           
  2028                           ;SPI_MAESTRO.c: 165:     PORTD = 0;
  2029  0C1E  0188               	clrf	8	;volatile
  2030  0C1F                     l2272:
  2031                           
  2032                           ;SPI_MAESTRO.c: 168:     OSCCONbits.IRCF2 = 1;
  2033  0C1F  1683               	bsf	3,5	;RP0=1, select bank1
  2034  0C20  1303               	bcf	3,6	;RP1=0, select bank1
  2035  0C21  170F               	bsf	15,6	;volatile
  2036  0C22                     l2274:
  2037                           
  2038                           ;SPI_MAESTRO.c: 169:     OSCCONbits.IRCF1 = 1;
  2039  0C22  168F               	bsf	15,5	;volatile
  2040  0C23                     l2276:
  2041                           
  2042                           ;SPI_MAESTRO.c: 170:     OSCCONbits.IRCF0 = 0;
  2043  0C23  120F               	bcf	15,4	;volatile
  2044  0C24                     l2278:
  2045                           
  2046                           ;SPI_MAESTRO.c: 171:     OSCCONbits.SCS = 1;
  2047  0C24  140F               	bsf	15,0	;volatile
  2048  0C25                     l2280:
  2049                           
  2050                           ;SPI_MAESTRO.c: 174:     TXSTAbits.BRGH = 1;
  2051  0C25  1518               	bsf	24,2	;volatile
  2052  0C26                     l2282:
  2053                           
  2054                           ;SPI_MAESTRO.c: 175:     BAUDCTLbits.BRG16 = 0;
  2055  0C26  1683               	bsf	3,5	;RP0=1, select bank3
  2056  0C27  1703               	bsf	3,6	;RP1=1, select bank3
  2057  0C28  1187               	bcf	7,3	;volatile
  2058  0C29                     l2284:
  2059                           
  2060                           ;SPI_MAESTRO.c: 177:     TXSTAbits.SYNC = 0;
  2061  0C29  1683               	bsf	3,5	;RP0=1, select bank1
  2062  0C2A  1303               	bcf	3,6	;RP1=0, select bank1
  2063  0C2B  1218               	bcf	24,4	;volatile
  2064  0C2C                     l2286:
  2065                           
  2066                           ;SPI_MAESTRO.c: 178:     RCSTAbits.SPEN = 1;
  2067  0C2C  1283               	bcf	3,5	;RP0=0, select bank0
  2068  0C2D  1303               	bcf	3,6	;RP1=0, select bank0
  2069  0C2E  1798               	bsf	24,7	;volatile
  2070  0C2F                     l2288:
  2071                           
  2072                           ;SPI_MAESTRO.c: 179:     RCSTAbits.CREN = 1;
  2073  0C2F  1618               	bsf	24,4	;volatile
  2074  0C30                     l2290:
  2075                           
  2076                           ;SPI_MAESTRO.c: 181:     TXSTAbits.TXEN = 1;
  2077  0C30  1683               	bsf	3,5	;RP0=1, select bank1
  2078  0C31  1303               	bcf	3,6	;RP1=0, select bank1
  2079  0C32  1698               	bsf	24,5	;volatile
  2080  0C33                     l2292:
  2081                           
  2082                           ;SPI_MAESTRO.c: 183:     RCSTAbits.RX9 = 0;
  2083  0C33  1283               	bcf	3,5	;RP0=0, select bank0
  2084  0C34  1303               	bcf	3,6	;RP1=0, select bank0
  2085  0C35  1318               	bcf	24,6	;volatile
  2086  0C36                     l2294:
  2087                           
  2088                           ;SPI_MAESTRO.c: 185:     SPBRG = 25;
  2089  0C36  3019               	movlw	25
  2090  0C37  1683               	bsf	3,5	;RP0=1, select bank1
  2091  0C38  1303               	bcf	3,6	;RP1=0, select bank1
  2092  0C39  0099               	movwf	25	;volatile
  2093  0C3A                     l2296:
  2094                           
  2095                           ;SPI_MAESTRO.c: 186:     SPBRGH = 1;
  2096  0C3A  3001               	movlw	1
  2097  0C3B  009A               	movwf	26	;volatile
  2098  0C3C                     l2298:
  2099                           
  2100                           ;SPI_MAESTRO.c: 188:     PORTCbits.RC2 = 1;
  2101  0C3C  1283               	bcf	3,5	;RP0=0, select bank0
  2102  0C3D  1303               	bcf	3,6	;RP1=0, select bank0
  2103  0C3E  1507               	bsf	7,2	;volatile
  2104  0C3F                     l2300:
  2105                           
  2106                           ;SPI_MAESTRO.c: 189:     spiInit(SPI_MASTER_OSC_DIV4, SPI_DATA_SAMPLE_MIDDLE, SPI_CLOCK_
      +                          IDLE_LOW, SPI_IDLE_2_ACTIVE);
  2107  0C3F  01F0               	clrf	spiInit@sDataSample
  2108  0C40  01F1               	clrf	spiInit@sClockIdle
  2109  0C41  01F2               	clrf	spiInit@sTransmitEdge
  2110  0C42  3020               	movlw	32
  2111  0C43  120A  158A  234B  120A  158A  	fcall	_spiInit
  2112  0C48                     l110:
  2113  0C48  0008               	return
  2114  0C49                     __end_of_setup:
  2115                           
  2116                           	psect	text7
  2117  0B4B                     __ptext7:	
  2118 ;; *************** function _spiInit *****************
  2119 ;; Defined at:
  2120 ;;		line 12 in file "SPI.c"
  2121 ;; Parameters:    Size  Location     Type
  2122 ;;  sType           1    wreg     enum E1264
  2123 ;;  sDataSample     1    0[COMMON] enum E1272
  2124 ;;  sClockIdle      1    1[COMMON] enum E1276
  2125 ;;  sTransmitEdg    1    2[COMMON] enum E1280
  2126 ;; Auto vars:     Size  Location     Type
  2127 ;;  sType           1    3[COMMON] enum E1264
  2128 ;; Return value:  Size  Location     Type
  2129 ;;                  1    wreg      void 
  2130 ;; Registers used:
  2131 ;;		wreg, status,2, status,0
  2132 ;; Tracked objects:
  2133 ;;		On entry : 0/0
  2134 ;;		On exit  : 0/0
  2135 ;;		Unchanged: 0/0
  2136 ;; Data sizes:     COMMON   BANK0   BANK1   BANK3   BANK2
  2137 ;;      Params:         3       0       0       0       0
  2138 ;;      Locals:         1       0       0       0       0
  2139 ;;      Temps:          0       0       0       0       0
  2140 ;;      Totals:         4       0       0       0       0
  2141 ;;Total ram usage:        4 bytes
  2142 ;; Hardware stack levels used:    1
  2143 ;; This function calls:
  2144 ;;		Nothing
  2145 ;; This function is called by:
  2146 ;;		_setup
  2147 ;; This function uses a non-reentrant model
  2148 ;;
  2149                           
  2150                           
  2151                           ;psect for function _spiInit
  2152  0B4B                     _spiInit:
  2153                           
  2154                           ;incstack = 0
  2155                           ; Regs used in _spiInit: [wreg+status,2+status,0]
  2156                           ;spiInit@sType stored from wreg
  2157  0B4B  00F3               	movwf	spiInit@sType
  2158  0B4C                     l1738:
  2159                           
  2160                           ;SPI.c: 12: void spiInit(Spi_Type sType, Spi_Data_Sample sDataSample, Spi_Clock_Idle sCl
      +                          ockIdle, Spi_Transmit_Edge sTransmitEdge);SPI.c: 13: {;SPI.c: 14:     TRISC5 = 0;
  2161  0B4C  1683               	bsf	3,5	;RP0=1, select bank1
  2162  0B4D  1303               	bcf	3,6	;RP1=0, select bank1
  2163  0B4E  1287               	bcf	7,5	;volatile
  2164                           
  2165                           ;SPI.c: 15:     if(sType & 0b00000100)
  2166  0B4F  1D73               	btfss	spiInit@sType,2
  2167  0B50  2B52               	goto	u1781
  2168  0B51  2B53               	goto	u1780
  2169  0B52                     u1781:
  2170  0B52  2B57               	goto	l1744
  2171  0B53                     u1780:
  2172  0B53                     l1740:
  2173                           
  2174                           ;SPI.c: 16:     {;SPI.c: 17:         SSPSTAT = sTransmitEdge;
  2175  0B53  0872               	movf	spiInit@sTransmitEdge,w
  2176  0B54  0094               	movwf	20	;volatile
  2177  0B55                     l1742:
  2178                           
  2179                           ;SPI.c: 18:         TRISC3 = 1;
  2180  0B55  1587               	bsf	7,3	;volatile
  2181                           
  2182                           ;SPI.c: 19:     }
  2183  0B56  2B5B               	goto	l135
  2184  0B57                     l1744:
  2185                           
  2186                           ;SPI.c: 21:     {;SPI.c: 22:         SSPSTAT = sDataSample | sTransmitEdge;
  2187  0B57  0870               	movf	spiInit@sDataSample,w
  2188  0B58  0472               	iorwf	spiInit@sTransmitEdge,w
  2189  0B59  0094               	movwf	20	;volatile
  2190  0B5A                     l1746:
  2191                           
  2192                           ;SPI.c: 23:         TRISC3 = 0;
  2193  0B5A  1187               	bcf	7,3	;volatile
  2194  0B5B                     l135:	
  2195                           ;SPI.c: 24:     }
  2196                           
  2197                           
  2198                           ;SPI.c: 26:     SSPCON = sType | sClockIdle;
  2199  0B5B  0873               	movf	spiInit@sType,w
  2200  0B5C  0471               	iorwf	spiInit@sClockIdle,w
  2201  0B5D  1283               	bcf	3,5	;RP0=0, select bank0
  2202  0B5E  1303               	bcf	3,6	;RP1=0, select bank0
  2203  0B5F  0094               	movwf	20	;volatile
  2204  0B60                     l136:
  2205  0B60  0008               	return
  2206  0B61                     __end_of_spiInit:
  2207                           
  2208                           	psect	text8
  2209  0B61                     __ptext8:	
  2210 ;; *************** function _printf *****************
  2211 ;; Defined at:
  2212 ;;		line 13 in file "C:\Program Files\Microchip\xc8\v2.31\pic\sources\c90\common\printf.c"
  2213 ;; Parameters:    Size  Location     Type
  2214 ;;  f               1    wreg     PTR const unsigned char 
  2215 ;;		 -> STR_2(17), STR_1(17), 
  2216 ;; Auto vars:     Size  Location     Type
  2217 ;;  f               1   13[BANK0 ] PTR const unsigned char 
  2218 ;;		 -> STR_2(17), STR_1(17), 
  2219 ;;  pb              2   15[BANK0 ] struct __prbuf
  2220 ;;  ap              1   14[BANK0 ] PTR void [1]
  2221 ;;		 -> ?_sprintf(2), ?_printf(2), 
  2222 ;; Return value:  Size  Location     Type
  2223 ;;                  2   16[None  ] int 
  2224 ;; Registers used:
  2225 ;;		wreg, fsr0l, fsr0h, status,2, status,0, btemp+1, pclath, cstack
  2226 ;; Tracked objects:
  2227 ;;		On entry : 0/0
  2228 ;;		On exit  : 0/0
  2229 ;;		Unchanged: 0/0
  2230 ;; Data sizes:     COMMON   BANK0   BANK1   BANK3   BANK2
  2231 ;;      Params:         0       0       0       0       0
  2232 ;;      Locals:         0       4       0       0       0
  2233 ;;      Temps:          0       2       0       0       0
  2234 ;;      Totals:         0       6       0       0       0
  2235 ;;Total ram usage:        6 bytes
  2236 ;; Hardware stack levels used:    1
  2237 ;; Hardware stack levels required when called:    2
  2238 ;; This function calls:
  2239 ;;		__doprnt
  2240 ;; This function is called by:
  2241 ;;		_main
  2242 ;; This function uses a non-reentrant model
  2243 ;;
  2244                           
  2245                           
  2246                           ;psect for function _printf
  2247  0B61                     _printf:
  2248                           
  2249                           ;incstack = 0
  2250                           ; Regs used in _printf: [wreg-fsr0h+status,2+status,0+btemp+1+pclath+cstack]
  2251                           ;printf@f stored from wreg
  2252  0B61  1283               	bcf	3,5	;RP0=0, select bank0
  2253  0B62  1303               	bcf	3,6	;RP1=0, select bank0
  2254  0B63  00AD               	movwf	printf@f
  2255  0B64                     l2328:
  2256  0B64  01AF               	clrf	printf@pb
  2257  0B65                     l2330:
  2258  0B65  3001               	movlw	(low (fp__putch-fpbase))& (0+255)
  2259  0B66  00AB               	movwf	??_printf
  2260  0B67  082B               	movf	??_printf,w
  2261  0B68  00B0               	movwf	low ((printf@pb| 0+1))
  2262  0B69                     l2332:
  2263  0B69  3070               	movlw	(low (?_printf| 0))& (0+255)
  2264  0B6A  00AB               	movwf	??_printf
  2265  0B6B  082B               	movf	??_printf,w
  2266  0B6C  00AE               	movwf	printf@ap
  2267  0B6D                     l2334:
  2268                           
  2269                           ;	Return value of _printf is never used
  2270  0B6D  082D               	movf	printf@f,w
  2271  0B6E  00AB               	movwf	??_printf
  2272  0B6F  082B               	movf	??_printf,w
  2273  0B70  00A0               	movwf	__doprnt@f
  2274  0B71  302E               	movlw	(low (printf@ap| 0))& (0+255)
  2275  0B72  00AC               	movwf	??_printf+1
  2276  0B73  082C               	movf	??_printf+1,w
  2277  0B74  00A1               	movwf	__doprnt@ap
  2278  0B75  302F               	movlw	(low (printf@pb| 0))& (0+255)
  2279  0B76  120A  158A  26CC  120A  158A  	fcall	__doprnt
  2280  0B7B                     l716:
  2281  0B7B  0008               	return
  2282  0B7C                     __end_of_printf:
  2283                           
  2284                           	psect	text9
  2285  0ECC                     __ptext9:	
  2286 ;; *************** function __doprnt *****************
  2287 ;; Defined at:
  2288 ;;		line 471 in file "C:\Program Files\Microchip\xc8\v2.31\pic\sources\c90\common\doprnt.c"
  2289 ;; Parameters:    Size  Location     Type
  2290 ;;  pb              1    wreg     PTR struct __prbuf
  2291 ;;		 -> sprintf@pb(2), printf@pb(2), 
  2292 ;;  f               1    0[BANK0 ] PTR const unsigned char 
  2293 ;;		 -> STR_5(3), STR_4(3), STR_3(3), STR_2(17), 
  2294 ;;		 -> STR_1(17), 
  2295 ;;  ap              1    1[BANK0 ] PTR PTR void 
  2296 ;;		 -> sprintf@ap(1), printf@ap(1), 
  2297 ;; Auto vars:     Size  Location     Type
  2298 ;;  pb              1   10[BANK0 ] PTR struct __prbuf
  2299 ;;		 -> sprintf@pb(2), printf@pb(2), 
  2300 ;;  tmpval          4    0        struct .
  2301 ;;  val             2    7[BANK0 ] unsigned int 
  2302 ;;  cp              2    0        PTR const unsigned char 
  2303 ;;  len             2    0        unsigned int 
  2304 ;;  c               1    9[BANK0 ] unsigned char 
  2305 ;;  prec            1    6[BANK0 ] char 
  2306 ;;  flag            1    5[BANK0 ] unsigned char 
  2307 ;; Return value:  Size  Location     Type
  2308 ;;                  2    0[BANK0 ] int 
  2309 ;; Registers used:
  2310 ;;		wreg, fsr0l, fsr0h, status,2, status,0, btemp+1, pclath, cstack
  2311 ;; Tracked objects:
  2312 ;;		On entry : 0/0
  2313 ;;		On exit  : 0/0
  2314 ;;		Unchanged: 0/0
  2315 ;; Data sizes:     COMMON   BANK0   BANK1   BANK3   BANK2
  2316 ;;      Params:         0       2       0       0       0
  2317 ;;      Locals:         0       6       0       0       0
  2318 ;;      Temps:          0       3       0       0       0
  2319 ;;      Totals:         0      11       0       0       0
  2320 ;;Total ram usage:       11 bytes
  2321 ;; Hardware stack levels used:    1
  2322 ;; Hardware stack levels required when called:    1
  2323 ;; This function calls:
  2324 ;;		Absolute function
  2325 ;;		___lwdiv
  2326 ;;		___lwmod
  2327 ;;		_putch
  2328 ;; This function is called by:
  2329 ;;		_printf
  2330 ;;		_sprintf
  2331 ;; This function uses a non-reentrant model
  2332 ;;
  2333                           
  2334                           
  2335                           ;psect for function __doprnt
  2336  0ECC                     __doprnt:
  2337                           
  2338                           ;incstack = 0
  2339                           ; Regs used in __doprnt: [wreg-fsr0h+status,2+status,0+btemp+1+pclath+cstack]
  2340                           ;__doprnt@pb stored from wreg
  2341  0ECC  1283               	bcf	3,5	;RP0=0, select bank0
  2342  0ECD  1303               	bcf	3,6	;RP1=0, select bank0
  2343  0ECE  00AA               	movwf	__doprnt@pb
  2344  0ECF                     l2196:
  2345                           
  2346                           ;C:\Program Files\Microchip\xc8\v2.31\pic\sources\c90\common\doprnt.c: 471: _doprnt(stru
      +                          ct __prbuf * pb, register const char * f, register va_list ap);C:\Program Files\Microchi
      +                          p\xc8\v2.31\pic\sources\c90\common\doprnt.c: 472: {;C:\Program Files\Microchip\xc8\v2.31
      +                          \pic\sources\c90\common\doprnt.c: 512:  char c;;C:\Program Files\Microchip\xc8\v2.31\pic
      +                          \sources\c90\common\doprnt.c: 521:  signed char prec;;C:\Program Files\Microchip\xc8\v2.
      +                          31\pic\sources\c90\common\doprnt.c: 525:  unsigned char flag;;C:\Program Files\Microchip
      +                          \xc8\v2.31\pic\sources\c90\common\doprnt.c: 543:  } tmpval;
  2347  0ECF  2FE9               	goto	l2258
  2348  0ED0                     l2198:
  2349                           
  2350                           ;C:\Program Files\Microchip\xc8\v2.31\pic\sources\c90\common\doprnt.c: 555:   if(c != '%
      +                          ')
  2351  0ED0  3025               	movlw	37
  2352  0ED1  0629               	xorwf	__doprnt@c,w
  2353  0ED2  1903               	btfsc	3,2
  2354  0ED3  2ED5               	goto	u2881
  2355  0ED4  2ED6               	goto	u2880
  2356  0ED5                     u2881:
  2357  0ED5  2EFC               	goto	l2208
  2358  0ED6                     u2880:
  2359  0ED6                     l2200:
  2360  0ED6  0A2A               	incf	__doprnt@pb,w
  2361  0ED7  0084               	movwf	4
  2362  0ED8  1383               	bcf	3,7	;select IRP bank0
  2363  0ED9  0800               	movf	0,w
  2364  0EDA  1903               	btfsc	3,2
  2365  0EDB  2EDD               	goto	u2891
  2366  0EDC  2EDE               	goto	u2890
  2367  0EDD                     u2891:
  2368  0EDD  2EED               	goto	l2204
  2369  0EDE                     u2890:
  2370  0EDE                     l2202:
  2371  0EDE  0829               	movf	__doprnt@c,w
  2372  0EDF  00A2               	movwf	??__doprnt
  2373  0EE0  0822               	movf	??__doprnt,w
  2374  0EE1  00F0               	movwf	putch@info
  2375  0EE2  0A2A               	incf	__doprnt@pb,w
  2376  0EE3  0084               	movwf	4
  2377  0EE4  0800               	movf	0,w
  2378  0EE5  120A  118A  2003  120A  158A  	fcall	fptable
  2379  0EEA  1283               	bcf	3,5	;RP0=0, select bank0
  2380  0EEB  1303               	bcf	3,6	;RP1=0, select bank0
  2381  0EEC  2ECF               	goto	l2196
  2382  0EED                     l2204:
  2383  0EED  0829               	movf	__doprnt@c,w
  2384  0EEE  00A2               	movwf	??__doprnt
  2385  0EEF  082A               	movf	__doprnt@pb,w
  2386  0EF0  0084               	movwf	4
  2387  0EF1  0800               	movf	0,w
  2388  0EF2  0084               	movwf	4
  2389  0EF3  0822               	movf	??__doprnt,w
  2390  0EF4  0080               	movwf	0
  2391  0EF5                     l2206:
  2392  0EF5  3001               	movlw	1
  2393  0EF6  00A2               	movwf	??__doprnt
  2394  0EF7  082A               	movf	__doprnt@pb,w
  2395  0EF8  0084               	movwf	4
  2396  0EF9  0822               	movf	??__doprnt,w
  2397  0EFA  0780               	addwf	0,f
  2398  0EFB  2ECF               	goto	l2196
  2399  0EFC                     l2208:
  2400                           
  2401                           ;C:\Program Files\Microchip\xc8\v2.31\pic\sources\c90\common\doprnt.c: 565:   flag = 0;
  2402  0EFC  01A5               	clrf	__doprnt@flag
  2403  0EFD                     l2212:	
  2404                           ;C:\Program Files\Microchip\xc8\v2.31\pic\sources\c90\common\doprnt.c: 661:   switch(c =
      +                           *f++) {
  2405                           
  2406  0EFD  3001               	movlw	1
  2407  0EFE  07A0               	addwf	__doprnt@f,f
  2408  0EFF  30FF               	movlw	-1
  2409  0F00  0720               	addwf	__doprnt@f,w
  2410  0F01  0084               	movwf	4
  2411  0F02  120A  158A  2000  120A  158A  	fcall	stringdir
  2412  0F07  00A9               	movwf	__doprnt@c
  2413  0F08  00A2               	movwf	??__doprnt
  2414  0F09  01A3               	clrf	??__doprnt+1
  2415                           
  2416                           ; Switch on 2 bytes has been partitioned into a top level switch of size 1, and 1 sub-sw
      +                          itches
  2417                           ; Switch size 1, requested type "simple"
  2418                           ; Number of cases is 1, Range of values is 0 to 0
  2419                           ; switch strategies available:
  2420                           ; Name         Instructions Cycles
  2421                           ; simple_byte            4     3 (average)
  2422                           ; direct_byte           11     8 (fixed)
  2423                           ; jumptable            260     6 (fixed)
  2424                           ;	Chosen strategy is simple_byte
  2425  0F0A  0823               	movf	??__doprnt+1,w
  2426  0F0B  3A00               	xorlw	0	; case 0
  2427  0F0C  1903               	skipnz
  2428  0F0D  2F0F               	goto	l2510
  2429  0F0E  2FE9               	goto	l2258
  2430  0F0F                     l2510:
  2431                           
  2432                           ; Switch size 1, requested type "simple"
  2433                           ; Number of cases is 3, Range of values is 0 to 105
  2434                           ; switch strategies available:
  2435                           ; Name         Instructions Cycles
  2436                           ; simple_byte           10     6 (average)
  2437                           ; jumptable            260     6 (fixed)
  2438                           ;	Chosen strategy is simple_byte
  2439  0F0F  0822               	movf	??__doprnt,w
  2440  0F10  3A00               	xorlw	0	; case 0
  2441  0F11  1903               	skipnz
  2442  0F12  2FFD               	goto	l2260
  2443  0F13  3A64               	xorlw	100	; case 100
  2444  0F14  1903               	skipnz
  2445  0F15  2F1A               	goto	l2214
  2446  0F16  3A0D               	xorlw	13	; case 105
  2447  0F17  1903               	skipnz
  2448  0F18  2F1A               	goto	l2214
  2449  0F19  2FE9               	goto	l2258
  2450  0F1A                     l2214:
  2451                           
  2452                           ;C:\Program Files\Microchip\xc8\v2.31\pic\sources\c90\common\doprnt.c: 1279:   {;C:\Prog
      +                          ram Files\Microchip\xc8\v2.31\pic\sources\c90\common\doprnt.c: 1285:     val = (unsigned
      +                           int)(*(int *)__va_arg((*(int **)ap), (int)0));
  2453  0F1A  0821               	movf	__doprnt@ap,w
  2454  0F1B  0084               	movwf	4
  2455  0F1C  1383               	bcf	3,7	;select IRP bank0
  2456  0F1D  0800               	movf	0,w
  2457  0F1E  00A2               	movwf	??__doprnt
  2458  0F1F  3002               	movlw	2
  2459  0F20  0780               	addwf	0,f
  2460  0F21  0822               	movf	??__doprnt,w
  2461  0F22  0084               	movwf	4
  2462  0F23  0800               	movf	0,w
  2463  0F24  00A7               	movwf	__doprnt@val
  2464  0F25  0A84               	incf	4,f
  2465  0F26  0800               	movf	0,w
  2466  0F27  00A8               	movwf	__doprnt@val+1
  2467  0F28                     l2216:
  2468                           
  2469                           ;C:\Program Files\Microchip\xc8\v2.31\pic\sources\c90\common\doprnt.c: 1287:    if((int)
      +                          val < 0) {
  2470  0F28  1FA8               	btfss	__doprnt@val+1,7
  2471  0F29  2F2B               	goto	u2901
  2472  0F2A  2F2C               	goto	u2900
  2473  0F2B                     u2901:
  2474  0F2B  2F35               	goto	l2222
  2475  0F2C                     u2900:
  2476  0F2C                     l2218:
  2477                           
  2478                           ;C:\Program Files\Microchip\xc8\v2.31\pic\sources\c90\common\doprnt.c: 1288:     flag |=
      +                           0x03;
  2479  0F2C  3003               	movlw	3
  2480  0F2D  00A2               	movwf	??__doprnt
  2481  0F2E  0822               	movf	??__doprnt,w
  2482  0F2F  04A5               	iorwf	__doprnt@flag,f
  2483  0F30                     l2220:
  2484                           
  2485                           ;C:\Program Files\Microchip\xc8\v2.31\pic\sources\c90\common\doprnt.c: 1289:     val = -
      +                          val;
  2486  0F30  09A7               	comf	__doprnt@val,f
  2487  0F31  09A8               	comf	__doprnt@val+1,f
  2488  0F32  0AA7               	incf	__doprnt@val,f
  2489  0F33  1903               	skipnz
  2490  0F34  0AA8               	incf	__doprnt@val+1,f
  2491  0F35                     l2222:
  2492                           
  2493                           ;C:\Program Files\Microchip\xc8\v2.31\pic\sources\c90\common\doprnt.c: 1292:   };C:\Prog
      +                          ram Files\Microchip\xc8\v2.31\pic\sources\c90\common\doprnt.c: 1331:    for(c = 1 ; c !=
      +                           sizeof dpowers/sizeof dpowers[0] ; c++)
  2494  0F35  01A9               	clrf	__doprnt@c
  2495  0F36  0AA9               	incf	__doprnt@c,f
  2496  0F37                     l2228:
  2497                           
  2498                           ;C:\Program Files\Microchip\xc8\v2.31\pic\sources\c90\common\doprnt.c: 1332:     if(val 
      +                          < dpowers[c])
  2499  0F37  0829               	movf	__doprnt@c,w
  2500  0F38  00A2               	movwf	??__doprnt
  2501  0F39  0722               	addwf	??__doprnt,w
  2502  0F3A  3E01               	addlw	low ((_dpowers-__stringbase)| (0+32768))
  2503  0F3B  0084               	movwf	4
  2504  0F3C  120A  158A  2000  120A  158A  	fcall	stringdir
  2505  0F41  00A3               	movwf	??__doprnt+1
  2506  0F42  120A  158A  2000  120A  158A  	fcall	stringdir
  2507  0F47  00A4               	movwf	??__doprnt+2
  2508  0F48  0824               	movf	??__doprnt+2,w
  2509  0F49  0228               	subwf	__doprnt@val+1,w
  2510  0F4A  1D03               	skipz
  2511  0F4B  2F4E               	goto	u2915
  2512  0F4C  0823               	movf	??__doprnt+1,w
  2513  0F4D  0227               	subwf	__doprnt@val,w
  2514  0F4E                     u2915:
  2515  0F4E  1803               	skipnc
  2516  0F4F  2F51               	goto	u2911
  2517  0F50  2F52               	goto	u2910
  2518  0F51                     u2911:
  2519  0F51  2F53               	goto	l2232
  2520  0F52                     u2910:
  2521  0F52  2F5D               	goto	l2234
  2522  0F53                     l2232:
  2523  0F53  3001               	movlw	1
  2524  0F54  00A2               	movwf	??__doprnt
  2525  0F55  0822               	movf	??__doprnt,w
  2526  0F56  07A9               	addwf	__doprnt@c,f
  2527  0F57  3005               	movlw	5
  2528  0F58  0629               	xorwf	__doprnt@c,w
  2529  0F59  1D03               	btfss	3,2
  2530  0F5A  2F5C               	goto	u2921
  2531  0F5B  2F5D               	goto	u2920
  2532  0F5C                     u2921:
  2533  0F5C  2F37               	goto	l2228
  2534  0F5D                     u2920:
  2535  0F5D                     l2234:
  2536                           
  2537                           ;C:\Program Files\Microchip\xc8\v2.31\pic\sources\c90\common\doprnt.c: 1448:   {;C:\Prog
      +                          ram Files\Microchip\xc8\v2.31\pic\sources\c90\common\doprnt.c: 1464:    if(flag & 0x03)
  2538  0F5D  0825               	movf	__doprnt@flag,w
  2539  0F5E  3903               	andlw	3
  2540  0F5F  1903               	btfsc	3,2
  2541  0F60  2F62               	goto	u2931
  2542  0F61  2F63               	goto	u2930
  2543  0F62                     u2931:
  2544  0F62  2F86               	goto	l2244
  2545  0F63                     u2930:
  2546  0F63                     l2236:
  2547  0F63  0A2A               	incf	__doprnt@pb,w
  2548  0F64  0084               	movwf	4
  2549  0F65  1383               	bcf	3,7	;select IRP bank0
  2550  0F66  0800               	movf	0,w
  2551  0F67  1903               	btfsc	3,2
  2552  0F68  2F6A               	goto	u2941
  2553  0F69  2F6B               	goto	u2940
  2554  0F6A                     u2941:
  2555  0F6A  2F78               	goto	l2240
  2556  0F6B                     u2940:
  2557  0F6B                     l2238:
  2558  0F6B  302D               	movlw	45
  2559  0F6C  00A2               	movwf	??__doprnt
  2560  0F6D  0822               	movf	??__doprnt,w
  2561  0F6E  00F0               	movwf	putch@info
  2562  0F6F  0A2A               	incf	__doprnt@pb,w
  2563  0F70  0084               	movwf	4
  2564  0F71  0800               	movf	0,w
  2565  0F72  120A  118A  2003  120A  158A  	fcall	fptable
  2566  0F77  2F86               	goto	l2244
  2567  0F78                     l2240:
  2568  0F78  302D               	movlw	45
  2569  0F79  00A2               	movwf	??__doprnt
  2570  0F7A  082A               	movf	__doprnt@pb,w
  2571  0F7B  0084               	movwf	4
  2572  0F7C  0800               	movf	0,w
  2573  0F7D  0084               	movwf	4
  2574  0F7E  0822               	movf	??__doprnt,w
  2575  0F7F  0080               	movwf	0
  2576  0F80                     l2242:
  2577  0F80  3001               	movlw	1
  2578  0F81  00A2               	movwf	??__doprnt
  2579  0F82  082A               	movf	__doprnt@pb,w
  2580  0F83  0084               	movwf	4
  2581  0F84  0822               	movf	??__doprnt,w
  2582  0F85  0780               	addwf	0,f
  2583  0F86                     l2244:
  2584                           
  2585                           ;C:\Program Files\Microchip\xc8\v2.31\pic\sources\c90\common\doprnt.c: 1495:   };C:\Prog
      +                          ram Files\Microchip\xc8\v2.31\pic\sources\c90\common\doprnt.c: 1498:   prec = c;
  2586  0F86  1283               	bcf	3,5	;RP0=0, select bank0
  2587  0F87  1303               	bcf	3,6	;RP1=0, select bank0
  2588  0F88  0829               	movf	__doprnt@c,w
  2589  0F89  00A2               	movwf	??__doprnt
  2590  0F8A  0822               	movf	??__doprnt,w
  2591  0F8B  00A6               	movwf	__doprnt@prec
  2592                           
  2593                           ;C:\Program Files\Microchip\xc8\v2.31\pic\sources\c90\common\doprnt.c: 1500:   while(pre
      +                          c--) {
  2594  0F8C  2FDE               	goto	l2256
  2595  0F8D                     l2246:
  2596                           
  2597                           ;C:\Program Files\Microchip\xc8\v2.31\pic\sources\c90\common\doprnt.c: 1504:    {;C:\Pro
      +                          gram Files\Microchip\xc8\v2.31\pic\sources\c90\common\doprnt.c: 1515:     c = (val / dpo
      +                          wers[(unsigned char)prec]) % 10 + '0';
  2598  0F8D  300A               	movlw	10
  2599  0F8E  00F8               	movwf	___lwmod@divisor
  2600  0F8F  3000               	movlw	0
  2601  0F90  00F9               	movwf	___lwmod@divisor+1
  2602  0F91  0826               	movf	__doprnt@prec,w
  2603  0F92  00A2               	movwf	??__doprnt
  2604  0F93  0722               	addwf	??__doprnt,w
  2605  0F94  3E01               	addlw	low ((_dpowers-__stringbase)| (0+32768))
  2606  0F95  0084               	movwf	4
  2607  0F96  120A  158A  2000  120A  158A  	fcall	stringdir
  2608  0F9B  00F0               	movwf	___lwdiv@divisor
  2609  0F9C  120A  158A  2000  120A  158A  	fcall	stringdir
  2610  0FA1  00F1               	movwf	___lwdiv@divisor+1
  2611  0FA2  0828               	movf	__doprnt@val+1,w
  2612  0FA3  00F3               	movwf	___lwdiv@dividend+1
  2613  0FA4  0827               	movf	__doprnt@val,w
  2614  0FA5  00F2               	movwf	___lwdiv@dividend
  2615  0FA6  120A  158A  2483  120A  158A  	fcall	___lwdiv
  2616  0FAB  0871               	movf	?___lwdiv+1,w
  2617  0FAC  00FB               	movwf	___lwmod@dividend+1
  2618  0FAD  0870               	movf	?___lwdiv,w
  2619  0FAE  00FA               	movwf	___lwmod@dividend
  2620  0FAF  120A  158A  2449  120A  158A  	fcall	___lwmod
  2621  0FB4  0878               	movf	?___lwmod,w
  2622  0FB5  3E30               	addlw	48
  2623  0FB6  1283               	bcf	3,5	;RP0=0, select bank0
  2624  0FB7  1303               	bcf	3,6	;RP1=0, select bank0
  2625  0FB8  00A3               	movwf	??__doprnt+1
  2626  0FB9  0823               	movf	??__doprnt+1,w
  2627  0FBA  00A9               	movwf	__doprnt@c
  2628  0FBB                     l2248:
  2629  0FBB  0A2A               	incf	__doprnt@pb,w
  2630  0FBC  0084               	movwf	4
  2631  0FBD  1383               	bcf	3,7	;select IRP bank0
  2632  0FBE  0800               	movf	0,w
  2633  0FBF  1903               	btfsc	3,2
  2634  0FC0  2FC2               	goto	u2951
  2635  0FC1  2FC3               	goto	u2950
  2636  0FC2                     u2951:
  2637  0FC2  2FD0               	goto	l2252
  2638  0FC3                     u2950:
  2639  0FC3                     l2250:
  2640  0FC3  0829               	movf	__doprnt@c,w
  2641  0FC4  00A2               	movwf	??__doprnt
  2642  0FC5  0822               	movf	??__doprnt,w
  2643  0FC6  00F0               	movwf	putch@info
  2644  0FC7  0A2A               	incf	__doprnt@pb,w
  2645  0FC8  0084               	movwf	4
  2646  0FC9  0800               	movf	0,w
  2647  0FCA  120A  118A  2003  120A  158A  	fcall	fptable
  2648  0FCF  2FDE               	goto	l2256
  2649  0FD0                     l2252:
  2650  0FD0  0829               	movf	__doprnt@c,w
  2651  0FD1  00A2               	movwf	??__doprnt
  2652  0FD2  082A               	movf	__doprnt@pb,w
  2653  0FD3  0084               	movwf	4
  2654  0FD4  0800               	movf	0,w
  2655  0FD5  0084               	movwf	4
  2656  0FD6  0822               	movf	??__doprnt,w
  2657  0FD7  0080               	movwf	0
  2658  0FD8                     l2254:
  2659  0FD8  3001               	movlw	1
  2660  0FD9  00A2               	movwf	??__doprnt
  2661  0FDA  082A               	movf	__doprnt@pb,w
  2662  0FDB  0084               	movwf	4
  2663  0FDC  0822               	movf	??__doprnt,w
  2664  0FDD  0780               	addwf	0,f
  2665  0FDE                     l2256:
  2666                           
  2667                           ;C:\Program Files\Microchip\xc8\v2.31\pic\sources\c90\common\doprnt.c: 1500:   while(pre
      +                          c--) {
  2668  0FDE  30FF               	movlw	255
  2669  0FDF  1283               	bcf	3,5	;RP0=0, select bank0
  2670  0FE0  1303               	bcf	3,6	;RP1=0, select bank0
  2671  0FE1  00A2               	movwf	??__doprnt
  2672  0FE2  0822               	movf	??__doprnt,w
  2673  0FE3  07A6               	addwf	__doprnt@prec,f
  2674  0FE4  0A26               	incf	__doprnt@prec,w
  2675  0FE5  1D03               	btfss	3,2
  2676  0FE6  2FE8               	goto	u2961
  2677  0FE7  2FE9               	goto	u2960
  2678  0FE8                     u2961:
  2679  0FE8  2F8D               	goto	l2246
  2680  0FE9                     u2960:
  2681  0FE9                     l2258:
  2682                           
  2683                           ;C:\Program Files\Microchip\xc8\v2.31\pic\sources\c90\common\doprnt.c: 553:  while((c = 
      +                          *f++)) {
  2684  0FE9  3001               	movlw	1
  2685  0FEA  1283               	bcf	3,5	;RP0=0, select bank0
  2686  0FEB  1303               	bcf	3,6	;RP1=0, select bank0
  2687  0FEC  07A0               	addwf	__doprnt@f,f
  2688  0FED  30FF               	movlw	-1
  2689  0FEE  0720               	addwf	__doprnt@f,w
  2690  0FEF  0084               	movwf	4
  2691  0FF0  120A  158A  2000  120A  158A  	fcall	stringdir
  2692  0FF5  00A2               	movwf	??__doprnt
  2693  0FF6  0822               	movf	??__doprnt,w
  2694  0FF7  00A9               	movwf	__doprnt@c
  2695  0FF8  0829               	movf	__doprnt@c,w
  2696  0FF9  1D03               	btfss	3,2
  2697  0FFA  2FFC               	goto	u2971
  2698  0FFB  2FFD               	goto	u2970
  2699  0FFC                     u2971:
  2700  0FFC  2ED0               	goto	l2198
  2701  0FFD                     u2970:
  2702  0FFD                     l2260:
  2703                           
  2704                           ;C:\Program Files\Microchip\xc8\v2.31\pic\sources\c90\common\doprnt.c: 1566:  return 0;
  2705  0FFD  01A0               	clrf	?__doprnt
  2706  0FFE  01A1               	clrf	?__doprnt+1
  2707  0FFF                     l754:
  2708  0FFF  0008               	return
  2709  1000                     __end_of__doprnt:
  2710                           
  2711                           	psect	text10
  2712  0B12                     __ptext10:	
  2713 ;; *************** function _putch *****************
  2714 ;; Defined at:
  2715 ;;		line 205 in file "SPI_MAESTRO.c"
  2716 ;; Parameters:    Size  Location     Type
  2717 ;;  info            1    0[COMMON] unsigned char 
  2718 ;; Auto vars:     Size  Location     Type
  2719 ;;		None
  2720 ;; Return value:  Size  Location     Type
  2721 ;;                  1    wreg      void 
  2722 ;; Registers used:
  2723 ;;		wreg
  2724 ;; Tracked objects:
  2725 ;;		On entry : 0/0
  2726 ;;		On exit  : 0/0
  2727 ;;		Unchanged: 0/0
  2728 ;; Data sizes:     COMMON   BANK0   BANK1   BANK3   BANK2
  2729 ;;      Params:         1       0       0       0       0
  2730 ;;      Locals:         0       0       0       0       0
  2731 ;;      Temps:          0       0       0       0       0
  2732 ;;      Totals:         1       0       0       0       0
  2733 ;;Total ram usage:        1 bytes
  2734 ;; Hardware stack levels used:    1
  2735 ;; This function calls:
  2736 ;;		Nothing
  2737 ;; This function is called by:
  2738 ;;		_printf
  2739 ;;		__doprnt
  2740 ;; This function uses a non-reentrant model
  2741 ;;
  2742                           
  2743                           
  2744                           ;psect for function _putch
  2745  0B12                     _putch:
  2746  0B12                     l1672:	
  2747                           ;incstack = 0
  2748                           ; Regs used in _putch: [wreg]
  2749                           
  2750  0B12                     l116:	
  2751                           ;SPI_MAESTRO.c: 207:     while (TXIF == 0);
  2752                           
  2753  0B12  1283               	bcf	3,5	;RP0=0, select bank0
  2754  0B13  1303               	bcf	3,6	;RP1=0, select bank0
  2755  0B14  1E0C               	btfss	12,4	;volatile
  2756  0B15  2B17               	goto	u1611
  2757  0B16  2B18               	goto	u1610
  2758  0B17                     u1611:
  2759  0B17  2B12               	goto	l116
  2760  0B18                     u1610:
  2761  0B18                     l1674:
  2762                           
  2763                           ;SPI_MAESTRO.c: 208:     TXREG = info;
  2764  0B18  0870               	movf	putch@info,w
  2765  0B19  0099               	movwf	25	;volatile
  2766  0B1A                     l119:
  2767  0B1A  0008               	return
  2768  0B1B                     __end_of_putch:
  2769                           
  2770                           	psect	text11
  2771  0C49                     __ptext11:	
  2772 ;; *************** function ___lwmod *****************
  2773 ;; Defined at:
  2774 ;;		line 5 in file "C:\Program Files\Microchip\xc8\v2.31\pic\sources\c90\common\lwmod.c"
  2775 ;; Parameters:    Size  Location     Type
  2776 ;;  divisor         2    8[COMMON] unsigned int 
  2777 ;;  dividend        2   10[COMMON] unsigned int 
  2778 ;; Auto vars:     Size  Location     Type
  2779 ;;  counter         1   13[COMMON] unsigned char 
  2780 ;; Return value:  Size  Location     Type
  2781 ;;                  2    8[COMMON] unsigned int 
  2782 ;; Registers used:
  2783 ;;		wreg, status,2, status,0
  2784 ;; Tracked objects:
  2785 ;;		On entry : 0/0
  2786 ;;		On exit  : 0/0
  2787 ;;		Unchanged: 0/0
  2788 ;; Data sizes:     COMMON   BANK0   BANK1   BANK3   BANK2
  2789 ;;      Params:         4       0       0       0       0
  2790 ;;      Locals:         1       0       0       0       0
  2791 ;;      Temps:          1       0       0       0       0
  2792 ;;      Totals:         6       0       0       0       0
  2793 ;;Total ram usage:        6 bytes
  2794 ;; Hardware stack levels used:    1
  2795 ;; This function calls:
  2796 ;;		Nothing
  2797 ;; This function is called by:
  2798 ;;		__doprnt
  2799 ;; This function uses a non-reentrant model
  2800 ;;
  2801                           
  2802                           
  2803                           ;psect for function ___lwmod
  2804  0C49                     ___lwmod:
  2805  0C49                     l1702:	
  2806                           ;incstack = 0
  2807                           ; Regs used in ___lwmod: [wreg+status,2+status,0]
  2808                           
  2809  0C49  0878               	movf	___lwmod@divisor,w
  2810  0C4A  0479               	iorwf	___lwmod@divisor+1,w
  2811  0C4B  1903               	btfsc	3,2
  2812  0C4C  2C4E               	goto	u1691
  2813  0C4D  2C4F               	goto	u1690
  2814  0C4E                     u1691:
  2815  0C4E  2C7E               	goto	l1720
  2816  0C4F                     u1690:
  2817  0C4F                     l1704:
  2818  0C4F  01FD               	clrf	___lwmod@counter
  2819  0C50  0AFD               	incf	___lwmod@counter,f
  2820  0C51  2C5D               	goto	l1710
  2821  0C52                     l1706:
  2822  0C52  3001               	movlw	1
  2823  0C53                     u1705:
  2824  0C53  1003               	clrc
  2825  0C54  0DF8               	rlf	___lwmod@divisor,f
  2826  0C55  0DF9               	rlf	___lwmod@divisor+1,f
  2827  0C56  3EFF               	addlw	-1
  2828  0C57  1D03               	skipz
  2829  0C58  2C53               	goto	u1705
  2830  0C59                     l1708:
  2831  0C59  3001               	movlw	1
  2832  0C5A  00FC               	movwf	??___lwmod
  2833  0C5B  087C               	movf	??___lwmod,w
  2834  0C5C  07FD               	addwf	___lwmod@counter,f
  2835  0C5D                     l1710:
  2836  0C5D  1FF9               	btfss	___lwmod@divisor+1,7
  2837  0C5E  2C60               	goto	u1711
  2838  0C5F  2C61               	goto	u1710
  2839  0C60                     u1711:
  2840  0C60  2C52               	goto	l1706
  2841  0C61                     u1710:
  2842  0C61                     l1712:
  2843  0C61  0879               	movf	___lwmod@divisor+1,w
  2844  0C62  027B               	subwf	___lwmod@dividend+1,w
  2845  0C63  1D03               	skipz
  2846  0C64  2C67               	goto	u1725
  2847  0C65  0878               	movf	___lwmod@divisor,w
  2848  0C66  027A               	subwf	___lwmod@dividend,w
  2849  0C67                     u1725:
  2850  0C67  1C03               	skipc
  2851  0C68  2C6A               	goto	u1721
  2852  0C69  2C6B               	goto	u1720
  2853  0C6A                     u1721:
  2854  0C6A  2C71               	goto	l1716
  2855  0C6B                     u1720:
  2856  0C6B                     l1714:
  2857  0C6B  0878               	movf	___lwmod@divisor,w
  2858  0C6C  02FA               	subwf	___lwmod@dividend,f
  2859  0C6D  0879               	movf	___lwmod@divisor+1,w
  2860  0C6E  1C03               	skipc
  2861  0C6F  03FB               	decf	___lwmod@dividend+1,f
  2862  0C70  02FB               	subwf	___lwmod@dividend+1,f
  2863  0C71                     l1716:
  2864  0C71  3001               	movlw	1
  2865  0C72                     u1735:
  2866  0C72  1003               	clrc
  2867  0C73  0CF9               	rrf	___lwmod@divisor+1,f
  2868  0C74  0CF8               	rrf	___lwmod@divisor,f
  2869  0C75  3EFF               	addlw	-1
  2870  0C76  1D03               	skipz
  2871  0C77  2C72               	goto	u1735
  2872  0C78                     l1718:
  2873  0C78  3001               	movlw	1
  2874  0C79  02FD               	subwf	___lwmod@counter,f
  2875  0C7A  1D03               	btfss	3,2
  2876  0C7B  2C7D               	goto	u1741
  2877  0C7C  2C7E               	goto	u1740
  2878  0C7D                     u1741:
  2879  0C7D  2C61               	goto	l1712
  2880  0C7E                     u1740:
  2881  0C7E                     l1720:
  2882  0C7E  087B               	movf	___lwmod@dividend+1,w
  2883  0C7F  00F9               	movwf	?___lwmod+1
  2884  0C80  087A               	movf	___lwmod@dividend,w
  2885  0C81  00F8               	movwf	?___lwmod
  2886  0C82                     l521:
  2887  0C82  0008               	return
  2888  0C83                     __end_of___lwmod:
  2889                           
  2890                           	psect	text12
  2891  0C83                     __ptext12:	
  2892 ;; *************** function ___lwdiv *****************
  2893 ;; Defined at:
  2894 ;;		line 5 in file "C:\Program Files\Microchip\xc8\v2.31\pic\sources\c90\common\lwdiv.c"
  2895 ;; Parameters:    Size  Location     Type
  2896 ;;  divisor         2    0[COMMON] unsigned int 
  2897 ;;  dividend        2    2[COMMON] unsigned int 
  2898 ;; Auto vars:     Size  Location     Type
  2899 ;;  quotient        2    5[COMMON] unsigned int 
  2900 ;;  counter         1    7[COMMON] unsigned char 
  2901 ;; Return value:  Size  Location     Type
  2902 ;;                  2    0[COMMON] unsigned int 
  2903 ;; Registers used:
  2904 ;;		wreg, status,2, status,0
  2905 ;; Tracked objects:
  2906 ;;		On entry : 0/0
  2907 ;;		On exit  : 0/0
  2908 ;;		Unchanged: 0/0
  2909 ;; Data sizes:     COMMON   BANK0   BANK1   BANK3   BANK2
  2910 ;;      Params:         4       0       0       0       0
  2911 ;;      Locals:         3       0       0       0       0
  2912 ;;      Temps:          1       0       0       0       0
  2913 ;;      Totals:         8       0       0       0       0
  2914 ;;Total ram usage:        8 bytes
  2915 ;; Hardware stack levels used:    1
  2916 ;; This function calls:
  2917 ;;		Nothing
  2918 ;; This function is called by:
  2919 ;;		__doprnt
  2920 ;; This function uses a non-reentrant model
  2921 ;;
  2922                           
  2923                           
  2924                           ;psect for function ___lwdiv
  2925  0C83                     ___lwdiv:
  2926  0C83                     l1676:	
  2927                           ;incstack = 0
  2928                           ; Regs used in ___lwdiv: [wreg+status,2+status,0]
  2929                           
  2930  0C83  01F5               	clrf	___lwdiv@quotient
  2931  0C84  01F6               	clrf	___lwdiv@quotient+1
  2932  0C85                     l1678:
  2933  0C85  0870               	movf	___lwdiv@divisor,w
  2934  0C86  0471               	iorwf	___lwdiv@divisor+1,w
  2935  0C87  1903               	btfsc	3,2
  2936  0C88  2C8A               	goto	u1621
  2937  0C89  2C8B               	goto	u1620
  2938  0C8A                     u1621:
  2939  0C8A  2CC2               	goto	l1698
  2940  0C8B                     u1620:
  2941  0C8B                     l1680:
  2942  0C8B  01F7               	clrf	___lwdiv@counter
  2943  0C8C  0AF7               	incf	___lwdiv@counter,f
  2944  0C8D  2C99               	goto	l1686
  2945  0C8E                     l1682:
  2946  0C8E  3001               	movlw	1
  2947  0C8F                     u1635:
  2948  0C8F  1003               	clrc
  2949  0C90  0DF0               	rlf	___lwdiv@divisor,f
  2950  0C91  0DF1               	rlf	___lwdiv@divisor+1,f
  2951  0C92  3EFF               	addlw	-1
  2952  0C93  1D03               	skipz
  2953  0C94  2C8F               	goto	u1635
  2954  0C95                     l1684:
  2955  0C95  3001               	movlw	1
  2956  0C96  00F4               	movwf	??___lwdiv
  2957  0C97  0874               	movf	??___lwdiv,w
  2958  0C98  07F7               	addwf	___lwdiv@counter,f
  2959  0C99                     l1686:
  2960  0C99  1FF1               	btfss	___lwdiv@divisor+1,7
  2961  0C9A  2C9C               	goto	u1641
  2962  0C9B  2C9D               	goto	u1640
  2963  0C9C                     u1641:
  2964  0C9C  2C8E               	goto	l1682
  2965  0C9D                     u1640:
  2966  0C9D                     l1688:
  2967  0C9D  3001               	movlw	1
  2968  0C9E                     u1655:
  2969  0C9E  1003               	clrc
  2970  0C9F  0DF5               	rlf	___lwdiv@quotient,f
  2971  0CA0  0DF6               	rlf	___lwdiv@quotient+1,f
  2972  0CA1  3EFF               	addlw	-1
  2973  0CA2  1D03               	skipz
  2974  0CA3  2C9E               	goto	u1655
  2975  0CA4  0871               	movf	___lwdiv@divisor+1,w
  2976  0CA5  0273               	subwf	___lwdiv@dividend+1,w
  2977  0CA6  1D03               	skipz
  2978  0CA7  2CAA               	goto	u1665
  2979  0CA8  0870               	movf	___lwdiv@divisor,w
  2980  0CA9  0272               	subwf	___lwdiv@dividend,w
  2981  0CAA                     u1665:
  2982  0CAA  1C03               	skipc
  2983  0CAB  2CAD               	goto	u1661
  2984  0CAC  2CAE               	goto	u1660
  2985  0CAD                     u1661:
  2986  0CAD  2CB5               	goto	l1694
  2987  0CAE                     u1660:
  2988  0CAE                     l1690:
  2989  0CAE  0870               	movf	___lwdiv@divisor,w
  2990  0CAF  02F2               	subwf	___lwdiv@dividend,f
  2991  0CB0  0871               	movf	___lwdiv@divisor+1,w
  2992  0CB1  1C03               	skipc
  2993  0CB2  03F3               	decf	___lwdiv@dividend+1,f
  2994  0CB3  02F3               	subwf	___lwdiv@dividend+1,f
  2995  0CB4                     l1692:
  2996  0CB4  1475               	bsf	___lwdiv@quotient,0
  2997  0CB5                     l1694:
  2998  0CB5  3001               	movlw	1
  2999  0CB6                     u1675:
  3000  0CB6  1003               	clrc
  3001  0CB7  0CF1               	rrf	___lwdiv@divisor+1,f
  3002  0CB8  0CF0               	rrf	___lwdiv@divisor,f
  3003  0CB9  3EFF               	addlw	-1
  3004  0CBA  1D03               	skipz
  3005  0CBB  2CB6               	goto	u1675
  3006  0CBC                     l1696:
  3007  0CBC  3001               	movlw	1
  3008  0CBD  02F7               	subwf	___lwdiv@counter,f
  3009  0CBE  1D03               	btfss	3,2
  3010  0CBF  2CC1               	goto	u1681
  3011  0CC0  2CC2               	goto	u1680
  3012  0CC1                     u1681:
  3013  0CC1  2C9D               	goto	l1688
  3014  0CC2                     u1680:
  3015  0CC2                     l1698:
  3016  0CC2  0876               	movf	___lwdiv@quotient+1,w
  3017  0CC3  00F1               	movwf	?___lwdiv+1
  3018  0CC4  0875               	movf	___lwdiv@quotient,w
  3019  0CC5  00F0               	movwf	?___lwdiv
  3020  0CC6                     l511:
  3021  0CC6  0008               	return
  3022  0CC7                     __end_of___lwdiv:
  3023                           
  3024                           	psect	text13
  3025  0E25                     __ptext13:	
  3026 ;; *************** function _division *****************
  3027 ;; Defined at:
  3028 ;;		line 192 in file "SPI_MAESTRO.c"
  3029 ;; Parameters:    Size  Location     Type
  3030 ;;  variable        1    wreg     unsigned char 
  3031 ;; Auto vars:     Size  Location     Type
  3032 ;;  variable        1   68[BANK0 ] unsigned char 
  3033 ;;  val             1   69[BANK0 ] unsigned char 
  3034 ;; Return value:  Size  Location     Type
  3035 ;;                  1    wreg      void 
  3036 ;; Registers used:
  3037 ;;		wreg, status,2, status,0, btemp+1, pclath, cstack
  3038 ;; Tracked objects:
  3039 ;;		On entry : 0/0
  3040 ;;		On exit  : 0/0
  3041 ;;		Unchanged: 0/0
  3042 ;; Data sizes:     COMMON   BANK0   BANK1   BANK3   BANK2
  3043 ;;      Params:         0       0       0       0       0
  3044 ;;      Locals:         0       2       0       0       0
  3045 ;;      Temps:          0       5       0       0       0
  3046 ;;      Totals:         0       7       0       0       0
  3047 ;;Total ram usage:        7 bytes
  3048 ;; Hardware stack levels used:    1
  3049 ;; Hardware stack levels required when called:    2
  3050 ;; This function calls:
  3051 ;;		___awdiv
  3052 ;;		___bmul
  3053 ;;		___fldiv
  3054 ;;		___flmul
  3055 ;;		___fltol
  3056 ;;		___xxtofl
  3057 ;; This function is called by:
  3058 ;;		_main
  3059 ;; This function uses a non-reentrant model
  3060 ;;
  3061                           
  3062                           
  3063                           ;psect for function _division
  3064  0E25                     _division:
  3065                           
  3066                           ;incstack = 0
  3067                           ; Regs used in _division: [wreg+status,2+status,0+btemp+1+pclath+cstack]
  3068                           ;division@variable stored from wreg
  3069  0E25  1283               	bcf	3,5	;RP0=0, select bank0
  3070  0E26  1303               	bcf	3,6	;RP1=0, select bank0
  3071  0E27  00E4               	movwf	division@variable
  3072  0E28                     l2310:
  3073                           
  3074                           ;SPI_MAESTRO.c: 193:     uint8_t val;;SPI_MAESTRO.c: 194:     val = variable;
  3075  0E28  0864               	movf	division@variable,w
  3076  0E29  00DF               	movwf	??_division
  3077  0E2A  085F               	movf	??_division,w
  3078  0E2B  00E5               	movwf	division@val
  3079  0E2C                     l2312:
  3080                           
  3081                           ;SPI_MAESTRO.c: 195:     centenas = ((val * 1.963)/100) ;
  3082  0E2C  0865               	movf	division@val,w
  3083  0E2D  00DF               	movwf	??_division
  3084  0E2E  01E0               	clrf	??_division+1
  3085  0E2F  01E1               	clrf	??_division+2
  3086  0E30  01E2               	clrf	??_division+3
  3087  0E31  0862               	movf	??_division+3,w
  3088  0E32  00F3               	movwf	___xxtofl@val+3
  3089  0E33  0861               	movf	??_division+2,w
  3090  0E34  00F2               	movwf	___xxtofl@val+2
  3091  0E35  0860               	movf	??_division+1,w
  3092  0E36  00F1               	movwf	___xxtofl@val+1
  3093  0E37  085F               	movf	??_division,w
  3094  0E38  00F0               	movwf	___xxtofl@val
  3095  0E39  3001               	movlw	1
  3096  0E3A  120A  118A  200D  120A  158A  	fcall	___xxtofl
  3097  0E3F  0873               	movf	?___xxtofl+3,w
  3098  0E40  1283               	bcf	3,5	;RP0=0, select bank0
  3099  0E41  1303               	bcf	3,6	;RP1=0, select bank0
  3100  0E42  00A7               	movwf	___flmul@a+3
  3101  0E43  0872               	movf	?___xxtofl+2,w
  3102  0E44  00A6               	movwf	___flmul@a+2
  3103  0E45  0871               	movf	?___xxtofl+1,w
  3104  0E46  00A5               	movwf	___flmul@a+1
  3105  0E47  0870               	movf	?___xxtofl,w
  3106  0E48  00A4               	movwf	___flmul@a
  3107  0E49  303F               	movlw	63
  3108  0E4A  00A3               	movwf	___flmul@b+3
  3109  0E4B  30FB               	movlw	251
  3110  0E4C  00A2               	movwf	___flmul@b+2
  3111  0E4D  3043               	movlw	67
  3112  0E4E  00A1               	movwf	___flmul@b+1
  3113  0E4F  3096               	movlw	150
  3114  0E50  00A0               	movwf	___flmul@b
  3115  0E51  120A  118A  248B  120A  158A  	fcall	___flmul
  3116  0E56  1283               	bcf	3,5	;RP0=0, select bank0
  3117  0E57  1303               	bcf	3,6	;RP1=0, select bank0
  3118  0E58  0823               	movf	?___flmul+3,w
  3119  0E59  00C1               	movwf	___fldiv@b+3
  3120  0E5A  0822               	movf	?___flmul+2,w
  3121  0E5B  00C0               	movwf	___fldiv@b+2
  3122  0E5C  0821               	movf	?___flmul+1,w
  3123  0E5D  00BF               	movwf	___fldiv@b+1
  3124  0E5E  0820               	movf	?___flmul,w
  3125  0E5F  00BE               	movwf	___fldiv@b
  3126  0E60  3042               	movlw	66
  3127  0E61  00BD               	movwf	___fldiv@a+3
  3128  0E62  30C8               	movlw	200
  3129  0E63  00BC               	movwf	___fldiv@a+2
  3130  0E64  3000               	movlw	0
  3131  0E65  00BB               	movwf	___fldiv@a+1
  3132  0E66  3000               	movlw	0
  3133  0E67  00BA               	movwf	___fldiv@a
  3134  0E68  120A  118A  20C7  120A  158A  	fcall	___fldiv
  3135  0E6D  1283               	bcf	3,5	;RP0=0, select bank0
  3136  0E6E  1303               	bcf	3,6	;RP1=0, select bank0
  3137  0E6F  083D               	movf	?___fldiv+3,w
  3138  0E70  00D7               	movwf	___fltol@f1+3
  3139  0E71  083C               	movf	?___fldiv+2,w
  3140  0E72  00D6               	movwf	___fltol@f1+2
  3141  0E73  083B               	movf	?___fldiv+1,w
  3142  0E74  00D5               	movwf	___fltol@f1+1
  3143  0E75  083A               	movf	?___fldiv,w
  3144  0E76  00D4               	movwf	___fltol@f1
  3145  0E77  120A  158A  25A9  120A  158A  	fcall	___fltol
  3146  0E7C  1283               	bcf	3,5	;RP0=0, select bank0
  3147  0E7D  1303               	bcf	3,6	;RP1=0, select bank0
  3148  0E7E  0854               	movf	?___fltol,w
  3149  0E7F  00E3               	movwf	??_division+4
  3150  0E80  0863               	movf	??_division+4,w
  3151  0E81  00ED               	movwf	_centenas
  3152  0E82                     l2314:
  3153                           
  3154                           ;SPI_MAESTRO.c: 196:     val = (val - (centenas*100));
  3155  0E82  309C               	movlw	156
  3156  0E83  00DF               	movwf	??_division
  3157  0E84  085F               	movf	??_division,w
  3158  0E85  00F0               	movwf	___bmul@multiplicand
  3159  0E86  086D               	movf	_centenas,w
  3160  0E87  120A  158A  2336  120A  158A  	fcall	___bmul
  3161  0E8C  1283               	bcf	3,5	;RP0=0, select bank0
  3162  0E8D  1303               	bcf	3,6	;RP1=0, select bank0
  3163  0E8E  0765               	addwf	division@val,w
  3164  0E8F  00E0               	movwf	??_division+1
  3165  0E90  0860               	movf	??_division+1,w
  3166  0E91  00E5               	movwf	division@val
  3167  0E92                     l2316:
  3168                           
  3169                           ;SPI_MAESTRO.c: 197:     decenas = (val/10);
  3170  0E92  300A               	movlw	10
  3171  0E93  00F0               	movwf	___awdiv@divisor
  3172  0E94  3000               	movlw	0
  3173  0E95  00F1               	movwf	___awdiv@divisor+1
  3174  0E96  0865               	movf	division@val,w
  3175  0E97  00DF               	movwf	??_division
  3176  0E98  01E0               	clrf	??_division+1
  3177  0E99  085F               	movf	??_division,w
  3178  0E9A  00F2               	movwf	___awdiv@dividend
  3179  0E9B  0860               	movf	??_division+1,w
  3180  0E9C  00F3               	movwf	___awdiv@dividend+1
  3181  0E9D  120A  158A  24C7  120A  158A  	fcall	___awdiv
  3182  0EA2  0870               	movf	?___awdiv,w
  3183  0EA3  1283               	bcf	3,5	;RP0=0, select bank0
  3184  0EA4  1303               	bcf	3,6	;RP1=0, select bank0
  3185  0EA5  00E1               	movwf	??_division+2
  3186  0EA6  0861               	movf	??_division+2,w
  3187  0EA7  00EC               	movwf	_decenas
  3188  0EA8                     l2318:
  3189                           
  3190                           ;SPI_MAESTRO.c: 198:     val = (val - (decenas*10));
  3191  0EA8  30F6               	movlw	246
  3192  0EA9  00DF               	movwf	??_division
  3193  0EAA  085F               	movf	??_division,w
  3194  0EAB  00F0               	movwf	___bmul@multiplicand
  3195  0EAC  086C               	movf	_decenas,w
  3196  0EAD  120A  158A  2336  120A  158A  	fcall	___bmul
  3197  0EB2  1283               	bcf	3,5	;RP0=0, select bank0
  3198  0EB3  1303               	bcf	3,6	;RP1=0, select bank0
  3199  0EB4  0765               	addwf	division@val,w
  3200  0EB5  00E0               	movwf	??_division+1
  3201  0EB6  0860               	movf	??_division+1,w
  3202  0EB7  00E5               	movwf	division@val
  3203  0EB8                     l2320:
  3204                           
  3205                           ;SPI_MAESTRO.c: 199:     unidades = (val);
  3206  0EB8  0865               	movf	division@val,w
  3207  0EB9  00DF               	movwf	??_division
  3208  0EBA  085F               	movf	??_division,w
  3209  0EBB  00EB               	movwf	_unidades
  3210  0EBC                     l2322:
  3211                           
  3212                           ;SPI_MAESTRO.c: 201:     centenas = centenas + 48;
  3213  0EBC  086D               	movf	_centenas,w
  3214  0EBD  3E30               	addlw	48
  3215  0EBE  00DF               	movwf	??_division
  3216  0EBF  085F               	movf	??_division,w
  3217  0EC0  00ED               	movwf	_centenas
  3218  0EC1                     l2324:
  3219                           
  3220                           ;SPI_MAESTRO.c: 202:     decenas = decenas + 48;
  3221  0EC1  086C               	movf	_decenas,w
  3222  0EC2  3E30               	addlw	48
  3223  0EC3  00DF               	movwf	??_division
  3224  0EC4  085F               	movf	??_division,w
  3225  0EC5  00EC               	movwf	_decenas
  3226  0EC6                     l2326:
  3227                           
  3228                           ;SPI_MAESTRO.c: 203:     unidades = unidades + 48;
  3229  0EC6  086B               	movf	_unidades,w
  3230  0EC7  3E30               	addlw	48
  3231  0EC8  00DF               	movwf	??_division
  3232  0EC9  085F               	movf	??_division,w
  3233  0ECA  00EB               	movwf	_unidades
  3234  0ECB                     l113:
  3235  0ECB  0008               	return
  3236  0ECC                     __end_of_division:
  3237                           
  3238                           	psect	text14
  3239  000D                     __ptext14:	
  3240 ;; *************** function ___xxtofl *****************
  3241 ;; Defined at:
  3242 ;;		line 10 in file "C:\Program Files\Microchip\xc8\v2.31\pic\sources\c90\common\xxtofl.c"
  3243 ;; Parameters:    Size  Location     Type
  3244 ;;  sign            1    wreg     unsigned char 
  3245 ;;  val             4    0[COMMON] long 
  3246 ;; Auto vars:     Size  Location     Type
  3247 ;;  sign            1    8[COMMON] unsigned char 
  3248 ;;  arg             4   10[COMMON] unsigned long 
  3249 ;;  exp             1    9[COMMON] unsigned char 
  3250 ;; Return value:  Size  Location     Type
  3251 ;;                  4    0[COMMON] unsigned char 
  3252 ;; Registers used:
  3253 ;;		wreg, status,2, status,0
  3254 ;; Tracked objects:
  3255 ;;		On entry : 0/0
  3256 ;;		On exit  : 0/0
  3257 ;;		Unchanged: 0/0
  3258 ;; Data sizes:     COMMON   BANK0   BANK1   BANK3   BANK2
  3259 ;;      Params:         4       0       0       0       0
  3260 ;;      Locals:         6       0       0       0       0
  3261 ;;      Temps:          4       0       0       0       0
  3262 ;;      Totals:        14       0       0       0       0
  3263 ;;Total ram usage:       14 bytes
  3264 ;; Hardware stack levels used:    1
  3265 ;; This function calls:
  3266 ;;		Nothing
  3267 ;; This function is called by:
  3268 ;;		_division
  3269 ;; This function uses a non-reentrant model
  3270 ;;
  3271                           
  3272                           
  3273                           ;psect for function ___xxtofl
  3274  000D                     ___xxtofl:
  3275                           
  3276                           ;incstack = 0
  3277                           ; Regs used in ___xxtofl: [wreg+status,2+status,0]
  3278                           ;___xxtofl@sign stored from wreg
  3279  000D  00F8               	movwf	___xxtofl@sign
  3280  000E                     l2140:
  3281  000E  0878               	movf	___xxtofl@sign,w
  3282  000F  1903               	btfsc	3,2
  3283  0010  2812               	goto	u2721
  3284  0011  2813               	goto	u2720
  3285  0012                     u2721:
  3286  0012  2827               	goto	l2146
  3287  0013                     u2720:
  3288  0013                     l2142:
  3289  0013  1FF3               	btfss	___xxtofl@val+3,7
  3290  0014  2816               	goto	u2731
  3291  0015  2817               	goto	u2730
  3292  0016                     u2731:
  3293  0016  2827               	goto	l2146
  3294  0017                     u2730:
  3295  0017                     l2144:
  3296  0017  0970               	comf	___xxtofl@val,w
  3297  0018  00FA               	movwf	___xxtofl@arg
  3298  0019  0971               	comf	___xxtofl@val+1,w
  3299  001A  00FB               	movwf	___xxtofl@arg+1
  3300  001B  0972               	comf	___xxtofl@val+2,w
  3301  001C  00FC               	movwf	___xxtofl@arg+2
  3302  001D  0973               	comf	___xxtofl@val+3,w
  3303  001E  00FD               	movwf	___xxtofl@arg+3
  3304  001F  0AFA               	incf	___xxtofl@arg,f
  3305  0020  1903               	skipnz
  3306  0021  0AFB               	incf	___xxtofl@arg+1,f
  3307  0022  1903               	skipnz
  3308  0023  0AFC               	incf	___xxtofl@arg+2,f
  3309  0024  1903               	skipnz
  3310  0025  0AFD               	incf	___xxtofl@arg+3,f
  3311  0026  282F               	goto	l672
  3312  0027                     l2146:
  3313  0027  0873               	movf	___xxtofl@val+3,w
  3314  0028  00FD               	movwf	___xxtofl@arg+3
  3315  0029  0872               	movf	___xxtofl@val+2,w
  3316  002A  00FC               	movwf	___xxtofl@arg+2
  3317  002B  0871               	movf	___xxtofl@val+1,w
  3318  002C  00FB               	movwf	___xxtofl@arg+1
  3319  002D  0870               	movf	___xxtofl@val,w
  3320  002E  00FA               	movwf	___xxtofl@arg
  3321  002F                     l672:
  3322  002F  0873               	movf	___xxtofl@val+3,w
  3323  0030  0472               	iorwf	___xxtofl@val+2,w
  3324  0031  0471               	iorwf	___xxtofl@val+1,w
  3325  0032  0470               	iorwf	___xxtofl@val,w
  3326  0033  1D03               	skipz
  3327  0034  2836               	goto	u2741
  3328  0035  2837               	goto	u2740
  3329  0036                     u2741:
  3330  0036  2840               	goto	l2152
  3331  0037                     u2740:
  3332  0037                     l2148:
  3333  0037  3000               	movlw	0
  3334  0038  00F3               	movwf	?___xxtofl+3
  3335  0039  3000               	movlw	0
  3336  003A  00F2               	movwf	?___xxtofl+2
  3337  003B  3000               	movlw	0
  3338  003C  00F1               	movwf	?___xxtofl+1
  3339  003D  3000               	movlw	0
  3340  003E  00F0               	movwf	?___xxtofl
  3341  003F  28C6               	goto	l674
  3342  0040                     l2152:
  3343  0040  3096               	movlw	150
  3344  0041  00F4               	movwf	??___xxtofl
  3345  0042  0874               	movf	??___xxtofl,w
  3346  0043  00F9               	movwf	___xxtofl@exp
  3347  0044  2852               	goto	l2156
  3348  0045                     l2154:
  3349  0045  3001               	movlw	1
  3350  0046  00F4               	movwf	??___xxtofl
  3351  0047  0874               	movf	??___xxtofl,w
  3352  0048  07F9               	addwf	___xxtofl@exp,f
  3353  0049  3001               	movlw	1
  3354  004A                     u2755:
  3355  004A  1003               	clrc
  3356  004B  0CFD               	rrf	___xxtofl@arg+3,f
  3357  004C  0CFC               	rrf	___xxtofl@arg+2,f
  3358  004D  0CFB               	rrf	___xxtofl@arg+1,f
  3359  004E  0CFA               	rrf	___xxtofl@arg,f
  3360  004F  3EFF               	addlw	-1
  3361  0050  1D03               	skipz
  3362  0051  284A               	goto	u2755
  3363  0052                     l2156:
  3364  0052  30FE               	movlw	254
  3365  0053  057D               	andwf	___xxtofl@arg+3,w
  3366  0054  1D03               	btfss	3,2
  3367  0055  2857               	goto	u2761
  3368  0056  2858               	goto	u2760
  3369  0057                     u2761:
  3370  0057  2845               	goto	l2154
  3371  0058                     u2760:
  3372  0058  2874               	goto	l678
  3373  0059                     l2158:
  3374  0059  3001               	movlw	1
  3375  005A  00F4               	movwf	??___xxtofl
  3376  005B  0874               	movf	??___xxtofl,w
  3377  005C  07F9               	addwf	___xxtofl@exp,f
  3378  005D                     l2160:
  3379  005D  3001               	movlw	1
  3380  005E  07FA               	addwf	___xxtofl@arg,f
  3381  005F  3000               	movlw	0
  3382  0060  1803               	skipnc
  3383  0061  3001               	movlw	1
  3384  0062  07FB               	addwf	___xxtofl@arg+1,f
  3385  0063  3000               	movlw	0
  3386  0064  1803               	skipnc
  3387  0065  3001               	movlw	1
  3388  0066  07FC               	addwf	___xxtofl@arg+2,f
  3389  0067  3000               	movlw	0
  3390  0068  1803               	skipnc
  3391  0069  3001               	movlw	1
  3392  006A  07FD               	addwf	___xxtofl@arg+3,f
  3393  006B                     l2162:
  3394  006B  3001               	movlw	1
  3395  006C                     u2775:
  3396  006C  1003               	clrc
  3397  006D  0CFD               	rrf	___xxtofl@arg+3,f
  3398  006E  0CFC               	rrf	___xxtofl@arg+2,f
  3399  006F  0CFB               	rrf	___xxtofl@arg+1,f
  3400  0070  0CFA               	rrf	___xxtofl@arg,f
  3401  0071  3EFF               	addlw	-1
  3402  0072  1D03               	skipz
  3403  0073  286C               	goto	u2775
  3404  0074                     l678:
  3405  0074  30FF               	movlw	255
  3406  0075  057D               	andwf	___xxtofl@arg+3,w
  3407  0076  1D03               	btfss	3,2
  3408  0077  2879               	goto	u2781
  3409  0078  287A               	goto	u2780
  3410  0079                     u2781:
  3411  0079  2859               	goto	l2158
  3412  007A                     u2780:
  3413  007A  2886               	goto	l2166
  3414  007B                     l2164:
  3415  007B  3001               	movlw	1
  3416  007C  02F9               	subwf	___xxtofl@exp,f
  3417  007D  3001               	movlw	1
  3418  007E  00F4               	movwf	??___xxtofl
  3419  007F                     u2795:
  3420  007F  1003               	clrc
  3421  0080  0DFA               	rlf	___xxtofl@arg,f
  3422  0081  0DFB               	rlf	___xxtofl@arg+1,f
  3423  0082  0DFC               	rlf	___xxtofl@arg+2,f
  3424  0083  0DFD               	rlf	___xxtofl@arg+3,f
  3425  0084  0BF4               	decfsz	??___xxtofl,f
  3426  0085  287F               	goto	u2795
  3427  0086                     l2166:
  3428  0086  1BFC               	btfsc	___xxtofl@arg+2,7
  3429  0087  2889               	goto	u2801
  3430  0088  288A               	goto	u2800
  3431  0089                     u2801:
  3432  0089  2890               	goto	l685
  3433  008A                     u2800:
  3434  008A                     l2168:
  3435  008A  3002               	movlw	2
  3436  008B  0279               	subwf	___xxtofl@exp,w
  3437  008C  1803               	skipnc
  3438  008D  288F               	goto	u2811
  3439  008E  2890               	goto	u2810
  3440  008F                     u2811:
  3441  008F  287B               	goto	l2164
  3442  0090                     u2810:
  3443  0090                     l685:
  3444  0090  1879               	btfsc	___xxtofl@exp,0
  3445  0091  2893               	goto	u2821
  3446  0092  2894               	goto	u2820
  3447  0093                     u2821:
  3448  0093  289C               	goto	l686
  3449  0094                     u2820:
  3450  0094                     l2170:
  3451  0094  30FF               	movlw	255
  3452  0095  05FA               	andwf	___xxtofl@arg,f
  3453  0096  30FF               	movlw	255
  3454  0097  05FB               	andwf	___xxtofl@arg+1,f
  3455  0098  307F               	movlw	127
  3456  0099  05FC               	andwf	___xxtofl@arg+2,f
  3457  009A  30FF               	movlw	255
  3458  009B  05FD               	andwf	___xxtofl@arg+3,f
  3459  009C                     l686:
  3460  009C  1003               	clrc
  3461  009D  0CF9               	rrf	___xxtofl@exp,f
  3462  009E                     l2172:
  3463  009E  0879               	movf	___xxtofl@exp,w
  3464  009F  00F4               	movwf	??___xxtofl
  3465  00A0  01F5               	clrf	??___xxtofl+1
  3466  00A1  01F6               	clrf	??___xxtofl+2
  3467  00A2  01F7               	clrf	??___xxtofl+3
  3468  00A3  3018               	movlw	24
  3469  00A4                     u2835:
  3470  00A4  1003               	clrc
  3471  00A5  0DF4               	rlf	??___xxtofl,f
  3472  00A6  0DF5               	rlf	??___xxtofl+1,f
  3473  00A7  0DF6               	rlf	??___xxtofl+2,f
  3474  00A8  0DF7               	rlf	??___xxtofl+3,f
  3475  00A9                     u2830:
  3476  00A9  3EFF               	addlw	-1
  3477  00AA  1D03               	skipz
  3478  00AB  28A4               	goto	u2835
  3479  00AC  0874               	movf	??___xxtofl,w
  3480  00AD  04FA               	iorwf	___xxtofl@arg,f
  3481  00AE  0875               	movf	??___xxtofl+1,w
  3482  00AF  04FB               	iorwf	___xxtofl@arg+1,f
  3483  00B0  0876               	movf	??___xxtofl+2,w
  3484  00B1  04FC               	iorwf	___xxtofl@arg+2,f
  3485  00B2  0877               	movf	??___xxtofl+3,w
  3486  00B3  04FD               	iorwf	___xxtofl@arg+3,f
  3487  00B4                     l2174:
  3488  00B4  0878               	movf	___xxtofl@sign,w
  3489  00B5  1903               	btfsc	3,2
  3490  00B6  28B8               	goto	u2841
  3491  00B7  28B9               	goto	u2840
  3492  00B8                     u2841:
  3493  00B8  28BE               	goto	l2180
  3494  00B9                     u2840:
  3495  00B9                     l2176:
  3496  00B9  1FF3               	btfss	___xxtofl@val+3,7
  3497  00BA  28BC               	goto	u2851
  3498  00BB  28BD               	goto	u2850
  3499  00BC                     u2851:
  3500  00BC  28BE               	goto	l2180
  3501  00BD                     u2850:
  3502  00BD                     l2178:
  3503  00BD  17FD               	bsf	___xxtofl@arg+3,7
  3504  00BE                     l2180:
  3505  00BE  087D               	movf	___xxtofl@arg+3,w
  3506  00BF  00F3               	movwf	?___xxtofl+3
  3507  00C0  087C               	movf	___xxtofl@arg+2,w
  3508  00C1  00F2               	movwf	?___xxtofl+2
  3509  00C2  087B               	movf	___xxtofl@arg+1,w
  3510  00C3  00F1               	movwf	?___xxtofl+1
  3511  00C4  087A               	movf	___xxtofl@arg,w
  3512  00C5  00F0               	movwf	?___xxtofl
  3513  00C6                     l674:
  3514  00C6  0008               	return
  3515  00C7                     __end_of___xxtofl:
  3516                           
  3517                           	psect	text15
  3518  0DA9                     __ptext15:	
  3519 ;; *************** function ___fltol *****************
  3520 ;; Defined at:
  3521 ;;		line 43 in file "C:\Program Files\Microchip\xc8\v2.31\pic\sources\c90\common\fltol.c"
  3522 ;; Parameters:    Size  Location     Type
  3523 ;;  f1              4   52[BANK0 ] unsigned char 
  3524 ;; Auto vars:     Size  Location     Type
  3525 ;;  exp1            1   62[BANK0 ] unsigned char 
  3526 ;;  sign1           1   61[BANK0 ] unsigned char 
  3527 ;; Return value:  Size  Location     Type
  3528 ;;                  4   52[BANK0 ] long 
  3529 ;; Registers used:
  3530 ;;		wreg, status,2, status,0
  3531 ;; Tracked objects:
  3532 ;;		On entry : 0/0
  3533 ;;		On exit  : 0/0
  3534 ;;		Unchanged: 0/0
  3535 ;; Data sizes:     COMMON   BANK0   BANK1   BANK3   BANK2
  3536 ;;      Params:         0       4       0       0       0
  3537 ;;      Locals:         0       2       0       0       0
  3538 ;;      Temps:          0       5       0       0       0
  3539 ;;      Totals:         0      11       0       0       0
  3540 ;;Total ram usage:       11 bytes
  3541 ;; Hardware stack levels used:    1
  3542 ;; This function calls:
  3543 ;;		Nothing
  3544 ;; This function is called by:
  3545 ;;		_division
  3546 ;; This function uses a non-reentrant model
  3547 ;;
  3548                           
  3549                           
  3550                           ;psect for function ___fltol
  3551  0DA9                     ___fltol:
  3552  0DA9                     l1822:	
  3553                           ;incstack = 0
  3554                           ; Regs used in ___fltol: [wreg+status,2+status,0]
  3555                           
  3556  0DA9  1003               	clrc
  3557  0DAA  1283               	bcf	3,5	;RP0=0, select bank0
  3558  0DAB  1303               	bcf	3,6	;RP1=0, select bank0
  3559  0DAC  0D56               	rlf	___fltol@f1+2,w
  3560  0DAD  0D57               	rlf	___fltol@f1+3,w
  3561  0DAE  00D8               	movwf	??___fltol
  3562  0DAF  0858               	movf	??___fltol,w
  3563  0DB0  00DE               	movwf	___fltol@exp1
  3564  0DB1  085E               	movf	___fltol@exp1,w
  3565  0DB2  1D03               	btfss	3,2
  3566  0DB3  2DB5               	goto	u1961
  3567  0DB4  2DB6               	goto	u1960
  3568  0DB5                     u1961:
  3569  0DB5  2DBF               	goto	l1828
  3570  0DB6                     u1960:
  3571  0DB6                     l1824:
  3572  0DB6  3000               	movlw	0
  3573  0DB7  00D7               	movwf	?___fltol+3
  3574  0DB8  3000               	movlw	0
  3575  0DB9  00D6               	movwf	?___fltol+2
  3576  0DBA  3000               	movlw	0
  3577  0DBB  00D5               	movwf	?___fltol+1
  3578  0DBC  3000               	movlw	0
  3579  0DBD  00D4               	movwf	?___fltol
  3580  0DBE  2E24               	goto	l425
  3581  0DBF                     l1828:
  3582  0DBF  0854               	movf	___fltol@f1,w
  3583  0DC0  00D8               	movwf	??___fltol
  3584  0DC1  0855               	movf	___fltol@f1+1,w
  3585  0DC2  00D9               	movwf	??___fltol+1
  3586  0DC3  0856               	movf	___fltol@f1+2,w
  3587  0DC4  00DA               	movwf	??___fltol+2
  3588  0DC5  0857               	movf	___fltol@f1+3,w
  3589  0DC6  00DB               	movwf	??___fltol+3
  3590  0DC7  301F               	movlw	31
  3591  0DC8                     u1975:
  3592  0DC8  1003               	clrc
  3593  0DC9  0CDB               	rrf	??___fltol+3,f
  3594  0DCA  0CDA               	rrf	??___fltol+2,f
  3595  0DCB  0CD9               	rrf	??___fltol+1,f
  3596  0DCC  0CD8               	rrf	??___fltol,f
  3597  0DCD                     u1970:
  3598  0DCD  3EFF               	addlw	-1
  3599  0DCE  1D03               	skipz
  3600  0DCF  2DC8               	goto	u1975
  3601  0DD0  0858               	movf	??___fltol,w
  3602  0DD1  00DC               	movwf	??___fltol+4
  3603  0DD2  085C               	movf	??___fltol+4,w
  3604  0DD3  00DD               	movwf	___fltol@sign1
  3605  0DD4                     l1830:
  3606  0DD4  17D6               	bsf	___fltol@f1+2,7
  3607  0DD5                     l1832:
  3608  0DD5  30FF               	movlw	255
  3609  0DD6  05D4               	andwf	___fltol@f1,f
  3610  0DD7  30FF               	movlw	255
  3611  0DD8  05D5               	andwf	___fltol@f1+1,f
  3612  0DD9  30FF               	movlw	255
  3613  0DDA  05D6               	andwf	___fltol@f1+2,f
  3614  0DDB  3000               	movlw	0
  3615  0DDC  05D7               	andwf	___fltol@f1+3,f
  3616  0DDD                     l1834:
  3617  0DDD  3096               	movlw	150
  3618  0DDE  02DE               	subwf	___fltol@exp1,f
  3619  0DDF                     l1836:
  3620  0DDF  1FDE               	btfss	___fltol@exp1,7
  3621  0DE0  2DE2               	goto	u1981
  3622  0DE1  2DE3               	goto	u1980
  3623  0DE2                     u1981:
  3624  0DE2  2DFD               	goto	l1846
  3625  0DE3                     u1980:
  3626  0DE3                     l1838:
  3627  0DE3  085E               	movf	___fltol@exp1,w
  3628  0DE4  3A80               	xorlw	128
  3629  0DE5  3E97               	addlw	151
  3630  0DE6  1803               	skipnc
  3631  0DE7  2DE9               	goto	u1991
  3632  0DE8  2DEA               	goto	u1990
  3633  0DE9                     u1991:
  3634  0DE9  2DEB               	goto	l1844
  3635  0DEA                     u1990:
  3636  0DEA  2DB6               	goto	l1824
  3637  0DEB                     l1844:
  3638  0DEB  3001               	movlw	1
  3639  0DEC                     u2005:
  3640  0DEC  1003               	clrc
  3641  0DED  0CD7               	rrf	___fltol@f1+3,f
  3642  0DEE  0CD6               	rrf	___fltol@f1+2,f
  3643  0DEF  0CD5               	rrf	___fltol@f1+1,f
  3644  0DF0  0CD4               	rrf	___fltol@f1,f
  3645  0DF1  3EFF               	addlw	-1
  3646  0DF2  1D03               	skipz
  3647  0DF3  2DEC               	goto	u2005
  3648  0DF4  3001               	movlw	1
  3649  0DF5  00D8               	movwf	??___fltol
  3650  0DF6  0858               	movf	??___fltol,w
  3651  0DF7  07DE               	addwf	___fltol@exp1,f
  3652  0DF8  1D03               	btfss	3,2
  3653  0DF9  2DFB               	goto	u2011
  3654  0DFA  2DFC               	goto	u2010
  3655  0DFB                     u2011:
  3656  0DFB  2DEB               	goto	l1844
  3657  0DFC                     u2010:
  3658  0DFC  2E14               	goto	l1854
  3659  0DFD                     l1846:
  3660  0DFD  3020               	movlw	32
  3661  0DFE  025E               	subwf	___fltol@exp1,w
  3662  0DFF  1C03               	skipc
  3663  0E00  2E02               	goto	u2021
  3664  0E01  2E03               	goto	u2020
  3665  0E02                     u2021:
  3666  0E02  2E0F               	goto	l432
  3667  0E03                     u2020:
  3668  0E03  2DB6               	goto	l1824
  3669  0E04                     l1852:
  3670  0E04  3001               	movlw	1
  3671  0E05  00D8               	movwf	??___fltol
  3672  0E06                     u2035:
  3673  0E06  1003               	clrc
  3674  0E07  0DD4               	rlf	___fltol@f1,f
  3675  0E08  0DD5               	rlf	___fltol@f1+1,f
  3676  0E09  0DD6               	rlf	___fltol@f1+2,f
  3677  0E0A  0DD7               	rlf	___fltol@f1+3,f
  3678  0E0B  0BD8               	decfsz	??___fltol,f
  3679  0E0C  2E06               	goto	u2035
  3680  0E0D  3001               	movlw	1
  3681  0E0E  02DE               	subwf	___fltol@exp1,f
  3682  0E0F                     l432:
  3683  0E0F  085E               	movf	___fltol@exp1,w
  3684  0E10  1D03               	btfss	3,2
  3685  0E11  2E13               	goto	u2041
  3686  0E12  2E14               	goto	u2040
  3687  0E13                     u2041:
  3688  0E13  2E04               	goto	l1852
  3689  0E14                     u2040:
  3690  0E14                     l1854:
  3691  0E14  085D               	movf	___fltol@sign1,w
  3692  0E15  1903               	btfsc	3,2
  3693  0E16  2E18               	goto	u2051
  3694  0E17  2E19               	goto	u2050
  3695  0E18                     u2051:
  3696  0E18  2E24               	goto	l435
  3697  0E19                     u2050:
  3698  0E19                     l1856:
  3699  0E19  09D4               	comf	___fltol@f1,f
  3700  0E1A  09D5               	comf	___fltol@f1+1,f
  3701  0E1B  09D6               	comf	___fltol@f1+2,f
  3702  0E1C  09D7               	comf	___fltol@f1+3,f
  3703  0E1D  0AD4               	incf	___fltol@f1,f
  3704  0E1E  1903               	skipnz
  3705  0E1F  0AD5               	incf	___fltol@f1+1,f
  3706  0E20  1903               	skipnz
  3707  0E21  0AD6               	incf	___fltol@f1+2,f
  3708  0E22  1903               	skipnz
  3709  0E23  0AD7               	incf	___fltol@f1+3,f
  3710  0E24                     l435:
  3711  0E24                     l425:
  3712  0E24  0008               	return
  3713  0E25                     __end_of___fltol:
  3714                           
  3715                           	psect	text16
  3716  048B                     __ptext16:	
  3717 ;; *************** function ___flmul *****************
  3718 ;; Defined at:
  3719 ;;		line 8 in file "C:\Program Files\Microchip\xc8\v2.31\pic\sources\c90\common\sprcmul.c"
  3720 ;; Parameters:    Size  Location     Type
  3721 ;;  b               4    0[BANK0 ] long 
  3722 ;;  a               4    4[BANK0 ] long 
  3723 ;; Auto vars:     Size  Location     Type
  3724 ;;  prod            4   20[BANK0 ] struct .
  3725 ;;  grs             4   14[BANK0 ] unsigned long 
  3726 ;;  temp            2   24[BANK0 ] struct .
  3727 ;;  bexp            1   19[BANK0 ] unsigned char 
  3728 ;;  aexp            1   18[BANK0 ] unsigned char 
  3729 ;;  sign            1   13[BANK0 ] unsigned char 
  3730 ;; Return value:  Size  Location     Type
  3731 ;;                  4    0[BANK0 ] unsigned char 
  3732 ;; Registers used:
  3733 ;;		wreg, status,2, status,0, btemp+1, pclath, cstack
  3734 ;; Tracked objects:
  3735 ;;		On entry : 0/0
  3736 ;;		On exit  : 0/0
  3737 ;;		Unchanged: 0/0
  3738 ;; Data sizes:     COMMON   BANK0   BANK1   BANK3   BANK2
  3739 ;;      Params:         0       8       0       0       0
  3740 ;;      Locals:         0      13       0       0       0
  3741 ;;      Temps:          0       5       0       0       0
  3742 ;;      Totals:         0      26       0       0       0
  3743 ;;Total ram usage:       26 bytes
  3744 ;; Hardware stack levels used:    1
  3745 ;; Hardware stack levels required when called:    1
  3746 ;; This function calls:
  3747 ;;		__Umul8_16
  3748 ;; This function is called by:
  3749 ;;		_division
  3750 ;; This function uses a non-reentrant model
  3751 ;;
  3752                           
  3753                           
  3754                           ;psect for function ___flmul
  3755  048B                     ___flmul:
  3756  048B                     l2000:	
  3757                           ;incstack = 0
  3758                           ; Regs used in ___flmul: [wreg+status,2+status,0+btemp+1+pclath+cstack]
  3759                           
  3760  048B  1283               	bcf	3,5	;RP0=0, select bank0
  3761  048C  1303               	bcf	3,6	;RP1=0, select bank0
  3762  048D  0823               	movf	___flmul@b+3,w
  3763  048E  3980               	andlw	128
  3764  048F  00A8               	movwf	??___flmul
  3765  0490  0828               	movf	??___flmul,w
  3766  0491  00AD               	movwf	___flmul@sign
  3767  0492                     l2002:
  3768  0492  0823               	movf	___flmul@b+3,w
  3769  0493  00A8               	movwf	??___flmul
  3770  0494  0728               	addwf	??___flmul,w
  3771  0495  00A9               	movwf	??___flmul+1
  3772  0496  0829               	movf	??___flmul+1,w
  3773  0497  00B3               	movwf	___flmul@bexp
  3774  0498                     l2004:
  3775  0498  1FA2               	btfss	___flmul@b+2,7
  3776  0499  2C9B               	goto	u2351
  3777  049A  2C9C               	goto	u2350
  3778  049B                     u2351:
  3779  049B  2C9D               	goto	l2008
  3780  049C                     u2350:
  3781  049C                     l2006:
  3782  049C  1433               	bsf	___flmul@bexp,0
  3783  049D                     l2008:
  3784  049D  0833               	movf	___flmul@bexp,w
  3785  049E  1903               	btfsc	3,2
  3786  049F  2CA1               	goto	u2361
  3787  04A0  2CA2               	goto	u2360
  3788  04A1                     u2361:
  3789  04A1  2CB1               	goto	l2016
  3790  04A2                     u2360:
  3791  04A2                     l2010:
  3792  04A2  0A33               	incf	___flmul@bexp,w
  3793  04A3  1D03               	btfss	3,2
  3794  04A4  2CA6               	goto	u2371
  3795  04A5  2CA7               	goto	u2370
  3796  04A6                     u2371:
  3797  04A6  2CAF               	goto	l2014
  3798  04A7                     u2370:
  3799  04A7                     l2012:
  3800  04A7  3000               	movlw	0
  3801  04A8  00A3               	movwf	___flmul@b+3
  3802  04A9  3000               	movlw	0
  3803  04AA  00A2               	movwf	___flmul@b+2
  3804  04AB  3000               	movlw	0
  3805  04AC  00A1               	movwf	___flmul@b+1
  3806  04AD  3000               	movlw	0
  3807  04AE  00A0               	movwf	___flmul@b
  3808  04AF                     l2014:
  3809  04AF  17A2               	bsf	___flmul@b+2,7
  3810  04B0  2CB9               	goto	l2018
  3811  04B1                     l2016:
  3812  04B1  3000               	movlw	0
  3813  04B2  00A3               	movwf	___flmul@b+3
  3814  04B3  3000               	movlw	0
  3815  04B4  00A2               	movwf	___flmul@b+2
  3816  04B5  3000               	movlw	0
  3817  04B6  00A1               	movwf	___flmul@b+1
  3818  04B7  3000               	movlw	0
  3819  04B8  00A0               	movwf	___flmul@b
  3820  04B9                     l2018:
  3821  04B9  0827               	movf	___flmul@a+3,w
  3822  04BA  3980               	andlw	128
  3823  04BB  00A8               	movwf	??___flmul
  3824  04BC  0828               	movf	??___flmul,w
  3825  04BD  06AD               	xorwf	___flmul@sign,f
  3826  04BE                     l2020:
  3827  04BE  0827               	movf	___flmul@a+3,w
  3828  04BF  00A8               	movwf	??___flmul
  3829  04C0  0728               	addwf	??___flmul,w
  3830  04C1  00A9               	movwf	??___flmul+1
  3831  04C2  0829               	movf	??___flmul+1,w
  3832  04C3  00B2               	movwf	___flmul@aexp
  3833  04C4                     l2022:
  3834  04C4  1FA6               	btfss	___flmul@a+2,7
  3835  04C5  2CC7               	goto	u2381
  3836  04C6  2CC8               	goto	u2380
  3837  04C7                     u2381:
  3838  04C7  2CC9               	goto	l2026
  3839  04C8                     u2380:
  3840  04C8                     l2024:
  3841  04C8  1432               	bsf	___flmul@aexp,0
  3842  04C9                     l2026:
  3843  04C9  0832               	movf	___flmul@aexp,w
  3844  04CA  1903               	btfsc	3,2
  3845  04CB  2CCD               	goto	u2391
  3846  04CC  2CCE               	goto	u2390
  3847  04CD                     u2391:
  3848  04CD  2CDD               	goto	l2034
  3849  04CE                     u2390:
  3850  04CE                     l2028:
  3851  04CE  0A32               	incf	___flmul@aexp,w
  3852  04CF  1D03               	btfss	3,2
  3853  04D0  2CD2               	goto	u2401
  3854  04D1  2CD3               	goto	u2400
  3855  04D2                     u2401:
  3856  04D2  2CDB               	goto	l2032
  3857  04D3                     u2400:
  3858  04D3                     l2030:
  3859  04D3  3000               	movlw	0
  3860  04D4  00A7               	movwf	___flmul@a+3
  3861  04D5  3000               	movlw	0
  3862  04D6  00A6               	movwf	___flmul@a+2
  3863  04D7  3000               	movlw	0
  3864  04D8  00A5               	movwf	___flmul@a+1
  3865  04D9  3000               	movlw	0
  3866  04DA  00A4               	movwf	___flmul@a
  3867  04DB                     l2032:
  3868  04DB  17A6               	bsf	___flmul@a+2,7
  3869  04DC  2CE5               	goto	l2036
  3870  04DD                     l2034:
  3871  04DD  3000               	movlw	0
  3872  04DE  00A7               	movwf	___flmul@a+3
  3873  04DF  3000               	movlw	0
  3874  04E0  00A6               	movwf	___flmul@a+2
  3875  04E1  3000               	movlw	0
  3876  04E2  00A5               	movwf	___flmul@a+1
  3877  04E3  3000               	movlw	0
  3878  04E4  00A4               	movwf	___flmul@a
  3879  04E5                     l2036:
  3880  04E5  0832               	movf	___flmul@aexp,w
  3881  04E6  1903               	btfsc	3,2
  3882  04E7  2CE9               	goto	u2411
  3883  04E8  2CEA               	goto	u2410
  3884  04E9                     u2411:
  3885  04E9  2CEF               	goto	l2040
  3886  04EA                     u2410:
  3887  04EA                     l2038:
  3888  04EA  0833               	movf	___flmul@bexp,w
  3889  04EB  1D03               	btfss	3,2
  3890  04EC  2CEE               	goto	u2421
  3891  04ED  2CEF               	goto	u2420
  3892  04EE                     u2421:
  3893  04EE  2CF8               	goto	l2044
  3894  04EF                     u2420:
  3895  04EF                     l2040:
  3896  04EF  3000               	movlw	0
  3897  04F0  00A3               	movwf	?___flmul+3
  3898  04F1  3000               	movlw	0
  3899  04F2  00A2               	movwf	?___flmul+2
  3900  04F3  3000               	movlw	0
  3901  04F4  00A1               	movwf	?___flmul+1
  3902  04F5  3000               	movlw	0
  3903  04F6  00A0               	movwf	?___flmul
  3904  04F7  2FEB               	goto	l628
  3905  04F8                     l2044:
  3906  04F8  0820               	movf	___flmul@b,w
  3907  04F9  00A8               	movwf	??___flmul
  3908  04FA  0828               	movf	??___flmul,w
  3909  04FB  00F0               	movwf	__Umul8_16@multiplicand
  3910  04FC  0826               	movf	___flmul@a+2,w
  3911  04FD  120A  158A  23C2  120A  118A  	fcall	__Umul8_16
  3912  0502  0871               	movf	?__Umul8_16+1,w
  3913  0503  1283               	bcf	3,5	;RP0=0, select bank0
  3914  0504  1303               	bcf	3,6	;RP1=0, select bank0
  3915  0505  00B9               	movwf	___flmul@temp+1
  3916  0506  0870               	movf	?__Umul8_16,w
  3917  0507  00B8               	movwf	___flmul@temp
  3918  0508                     l2046:
  3919  0508  0838               	movf	___flmul@temp,w
  3920  0509  00A8               	movwf	??___flmul
  3921  050A  01A9               	clrf	??___flmul+1
  3922  050B  01AA               	clrf	??___flmul+2
  3923  050C  01AB               	clrf	??___flmul+3
  3924  050D  082B               	movf	??___flmul+3,w
  3925  050E  00B1               	movwf	___flmul@grs+3
  3926  050F  082A               	movf	??___flmul+2,w
  3927  0510  00B0               	movwf	___flmul@grs+2
  3928  0511  0829               	movf	??___flmul+1,w
  3929  0512  00AF               	movwf	___flmul@grs+1
  3930  0513  0828               	movf	??___flmul,w
  3931  0514  00AE               	movwf	___flmul@grs
  3932  0515                     l2048:
  3933  0515  0839               	movf	___flmul@temp+1,w
  3934  0516  00A8               	movwf	??___flmul
  3935  0517  01A9               	clrf	??___flmul+1
  3936  0518  01AA               	clrf	??___flmul+2
  3937  0519  01AB               	clrf	??___flmul+3
  3938  051A  082B               	movf	??___flmul+3,w
  3939  051B  00B7               	movwf	___flmul@prod+3
  3940  051C  082A               	movf	??___flmul+2,w
  3941  051D  00B6               	movwf	___flmul@prod+2
  3942  051E  0829               	movf	??___flmul+1,w
  3943  051F  00B5               	movwf	___flmul@prod+1
  3944  0520  0828               	movf	??___flmul,w
  3945  0521  00B4               	movwf	___flmul@prod
  3946  0522  0821               	movf	___flmul@b+1,w
  3947  0523  00A8               	movwf	??___flmul
  3948  0524  0828               	movf	??___flmul,w
  3949  0525  00F0               	movwf	__Umul8_16@multiplicand
  3950  0526  0825               	movf	___flmul@a+1,w
  3951  0527  120A  158A  23C2  120A  118A  	fcall	__Umul8_16
  3952  052C  0871               	movf	?__Umul8_16+1,w
  3953  052D  1283               	bcf	3,5	;RP0=0, select bank0
  3954  052E  1303               	bcf	3,6	;RP1=0, select bank0
  3955  052F  00B9               	movwf	___flmul@temp+1
  3956  0530  0870               	movf	?__Umul8_16,w
  3957  0531  00B8               	movwf	___flmul@temp
  3958  0532                     l2050:
  3959  0532  0838               	movf	___flmul@temp,w
  3960  0533  00A8               	movwf	??___flmul
  3961  0534  01A9               	clrf	??___flmul+1
  3962  0535  01AA               	clrf	??___flmul+2
  3963  0536  01AB               	clrf	??___flmul+3
  3964  0537  0828               	movf	??___flmul,w
  3965  0538  07AE               	addwf	___flmul@grs,f
  3966  0539  0829               	movf	??___flmul+1,w
  3967  053A  1103               	clrz
  3968  053B  1803               	skipnc
  3969  053C  3E01               	addlw	1
  3970  053D  1903               	skipnz
  3971  053E  2D40               	goto	u2431
  3972  053F  07AF               	addwf	___flmul@grs+1,f
  3973  0540                     u2431:
  3974  0540  082A               	movf	??___flmul+2,w
  3975  0541  1103               	clrz
  3976  0542  1803               	skipnc
  3977  0543  3E01               	addlw	1
  3978  0544  1903               	skipnz
  3979  0545  2D47               	goto	u2432
  3980  0546  07B0               	addwf	___flmul@grs+2,f
  3981  0547                     u2432:
  3982  0547  082B               	movf	??___flmul+3,w
  3983  0548  1103               	clrz
  3984  0549  1803               	skipnc
  3985  054A  3E01               	addlw	1
  3986  054B  1903               	skipnz
  3987  054C  2D4E               	goto	u2433
  3988  054D  07B1               	addwf	___flmul@grs+3,f
  3989  054E                     u2433:
  3990  054E                     l2052:
  3991  054E  0839               	movf	___flmul@temp+1,w
  3992  054F  00A8               	movwf	??___flmul
  3993  0550  01A9               	clrf	??___flmul+1
  3994  0551  01AA               	clrf	??___flmul+2
  3995  0552  01AB               	clrf	??___flmul+3
  3996  0553  0828               	movf	??___flmul,w
  3997  0554  07B4               	addwf	___flmul@prod,f
  3998  0555  0829               	movf	??___flmul+1,w
  3999  0556  1103               	clrz
  4000  0557  1803               	skipnc
  4001  0558  3E01               	addlw	1
  4002  0559  1903               	skipnz
  4003  055A  2D5C               	goto	u2441
  4004  055B  07B5               	addwf	___flmul@prod+1,f
  4005  055C                     u2441:
  4006  055C  082A               	movf	??___flmul+2,w
  4007  055D  1103               	clrz
  4008  055E  1803               	skipnc
  4009  055F  3E01               	addlw	1
  4010  0560  1903               	skipnz
  4011  0561  2D63               	goto	u2442
  4012  0562  07B6               	addwf	___flmul@prod+2,f
  4013  0563                     u2442:
  4014  0563  082B               	movf	??___flmul+3,w
  4015  0564  1103               	clrz
  4016  0565  1803               	skipnc
  4017  0566  3E01               	addlw	1
  4018  0567  1903               	skipnz
  4019  0568  2D6A               	goto	u2443
  4020  0569  07B7               	addwf	___flmul@prod+3,f
  4021  056A                     u2443:
  4022  056A  0822               	movf	___flmul@b+2,w
  4023  056B  00A8               	movwf	??___flmul
  4024  056C  0828               	movf	??___flmul,w
  4025  056D  00F0               	movwf	__Umul8_16@multiplicand
  4026  056E  0824               	movf	___flmul@a,w
  4027  056F  120A  158A  23C2  120A  118A  	fcall	__Umul8_16
  4028  0574  0871               	movf	?__Umul8_16+1,w
  4029  0575  1283               	bcf	3,5	;RP0=0, select bank0
  4030  0576  1303               	bcf	3,6	;RP1=0, select bank0
  4031  0577  00B9               	movwf	___flmul@temp+1
  4032  0578  0870               	movf	?__Umul8_16,w
  4033  0579  00B8               	movwf	___flmul@temp
  4034  057A                     l2054:
  4035  057A  0838               	movf	___flmul@temp,w
  4036  057B  00A8               	movwf	??___flmul
  4037  057C  01A9               	clrf	??___flmul+1
  4038  057D  01AA               	clrf	??___flmul+2
  4039  057E  01AB               	clrf	??___flmul+3
  4040  057F  0828               	movf	??___flmul,w
  4041  0580  07AE               	addwf	___flmul@grs,f
  4042  0581  0829               	movf	??___flmul+1,w
  4043  0582  1103               	clrz
  4044  0583  1803               	skipnc
  4045  0584  3E01               	addlw	1
  4046  0585  1903               	skipnz
  4047  0586  2D88               	goto	u2451
  4048  0587  07AF               	addwf	___flmul@grs+1,f
  4049  0588                     u2451:
  4050  0588  082A               	movf	??___flmul+2,w
  4051  0589  1103               	clrz
  4052  058A  1803               	skipnc
  4053  058B  3E01               	addlw	1
  4054  058C  1903               	skipnz
  4055  058D  2D8F               	goto	u2452
  4056  058E  07B0               	addwf	___flmul@grs+2,f
  4057  058F                     u2452:
  4058  058F  082B               	movf	??___flmul+3,w
  4059  0590  1103               	clrz
  4060  0591  1803               	skipnc
  4061  0592  3E01               	addlw	1
  4062  0593  1903               	skipnz
  4063  0594  2D96               	goto	u2453
  4064  0595  07B1               	addwf	___flmul@grs+3,f
  4065  0596                     u2453:
  4066  0596                     l2056:
  4067  0596  0839               	movf	___flmul@temp+1,w
  4068  0597  00A8               	movwf	??___flmul
  4069  0598  01A9               	clrf	??___flmul+1
  4070  0599  01AA               	clrf	??___flmul+2
  4071  059A  01AB               	clrf	??___flmul+3
  4072  059B  0828               	movf	??___flmul,w
  4073  059C  07B4               	addwf	___flmul@prod,f
  4074  059D  0829               	movf	??___flmul+1,w
  4075  059E  1103               	clrz
  4076  059F  1803               	skipnc
  4077  05A0  3E01               	addlw	1
  4078  05A1  1903               	skipnz
  4079  05A2  2DA4               	goto	u2461
  4080  05A3  07B5               	addwf	___flmul@prod+1,f
  4081  05A4                     u2461:
  4082  05A4  082A               	movf	??___flmul+2,w
  4083  05A5  1103               	clrz
  4084  05A6  1803               	skipnc
  4085  05A7  3E01               	addlw	1
  4086  05A8  1903               	skipnz
  4087  05A9  2DAB               	goto	u2462
  4088  05AA  07B6               	addwf	___flmul@prod+2,f
  4089  05AB                     u2462:
  4090  05AB  082B               	movf	??___flmul+3,w
  4091  05AC  1103               	clrz
  4092  05AD  1803               	skipnc
  4093  05AE  3E01               	addlw	1
  4094  05AF  1903               	skipnz
  4095  05B0  2DB2               	goto	u2463
  4096  05B1  07B7               	addwf	___flmul@prod+3,f
  4097  05B2                     u2463:
  4098  05B2                     l2058:
  4099  05B2  3008               	movlw	8
  4100  05B3  00A8               	movwf	??___flmul
  4101  05B4                     u2475:
  4102  05B4  1003               	clrc
  4103  05B5  0DAE               	rlf	___flmul@grs,f
  4104  05B6  0DAF               	rlf	___flmul@grs+1,f
  4105  05B7  0DB0               	rlf	___flmul@grs+2,f
  4106  05B8  0DB1               	rlf	___flmul@grs+3,f
  4107  05B9  0BA8               	decfsz	??___flmul,f
  4108  05BA  2DB4               	goto	u2475
  4109  05BB                     l2060:
  4110  05BB  0821               	movf	___flmul@b+1,w
  4111  05BC  00A8               	movwf	??___flmul
  4112  05BD  0828               	movf	??___flmul,w
  4113  05BE  00F0               	movwf	__Umul8_16@multiplicand
  4114  05BF  0824               	movf	___flmul@a,w
  4115  05C0  120A  158A  23C2  120A  118A  	fcall	__Umul8_16
  4116  05C5  0871               	movf	?__Umul8_16+1,w
  4117  05C6  1283               	bcf	3,5	;RP0=0, select bank0
  4118  05C7  1303               	bcf	3,6	;RP1=0, select bank0
  4119  05C8  00B9               	movwf	___flmul@temp+1
  4120  05C9  0870               	movf	?__Umul8_16,w
  4121  05CA  00B8               	movwf	___flmul@temp
  4122  05CB                     l2062:
  4123  05CB  0838               	movf	___flmul@temp,w
  4124  05CC  00A8               	movwf	??___flmul
  4125  05CD  0839               	movf	___flmul@temp+1,w
  4126  05CE  00A9               	movwf	??___flmul+1
  4127  05CF  01AA               	clrf	??___flmul+2
  4128  05D0  01AB               	clrf	??___flmul+3
  4129  05D1  0828               	movf	??___flmul,w
  4130  05D2  07AE               	addwf	___flmul@grs,f
  4131  05D3  0829               	movf	??___flmul+1,w
  4132  05D4  1103               	clrz
  4133  05D5  1803               	skipnc
  4134  05D6  3E01               	addlw	1
  4135  05D7  1903               	skipnz
  4136  05D8  2DDA               	goto	u2481
  4137  05D9  07AF               	addwf	___flmul@grs+1,f
  4138  05DA                     u2481:
  4139  05DA  082A               	movf	??___flmul+2,w
  4140  05DB  1103               	clrz
  4141  05DC  1803               	skipnc
  4142  05DD  3E01               	addlw	1
  4143  05DE  1903               	skipnz
  4144  05DF  2DE1               	goto	u2482
  4145  05E0  07B0               	addwf	___flmul@grs+2,f
  4146  05E1                     u2482:
  4147  05E1  082B               	movf	??___flmul+3,w
  4148  05E2  1103               	clrz
  4149  05E3  1803               	skipnc
  4150  05E4  3E01               	addlw	1
  4151  05E5  1903               	skipnz
  4152  05E6  2DE8               	goto	u2483
  4153  05E7  07B1               	addwf	___flmul@grs+3,f
  4154  05E8                     u2483:
  4155  05E8                     l2064:
  4156  05E8  0820               	movf	___flmul@b,w
  4157  05E9  00A8               	movwf	??___flmul
  4158  05EA  0828               	movf	??___flmul,w
  4159  05EB  00F0               	movwf	__Umul8_16@multiplicand
  4160  05EC  0825               	movf	___flmul@a+1,w
  4161  05ED  120A  158A  23C2  120A  118A  	fcall	__Umul8_16
  4162  05F2  0871               	movf	?__Umul8_16+1,w
  4163  05F3  1283               	bcf	3,5	;RP0=0, select bank0
  4164  05F4  1303               	bcf	3,6	;RP1=0, select bank0
  4165  05F5  00B9               	movwf	___flmul@temp+1
  4166  05F6  0870               	movf	?__Umul8_16,w
  4167  05F7  00B8               	movwf	___flmul@temp
  4168  05F8                     l2066:
  4169  05F8  0838               	movf	___flmul@temp,w
  4170  05F9  00A8               	movwf	??___flmul
  4171  05FA  0839               	movf	___flmul@temp+1,w
  4172  05FB  00A9               	movwf	??___flmul+1
  4173  05FC  01AA               	clrf	??___flmul+2
  4174  05FD  01AB               	clrf	??___flmul+3
  4175  05FE  0828               	movf	??___flmul,w
  4176  05FF  07AE               	addwf	___flmul@grs,f
  4177  0600  0829               	movf	??___flmul+1,w
  4178  0601  1103               	clrz
  4179  0602  1803               	skipnc
  4180  0603  3E01               	addlw	1
  4181  0604  1903               	skipnz
  4182  0605  2E07               	goto	u2491
  4183  0606  07AF               	addwf	___flmul@grs+1,f
  4184  0607                     u2491:
  4185  0607  082A               	movf	??___flmul+2,w
  4186  0608  1103               	clrz
  4187  0609  1803               	skipnc
  4188  060A  3E01               	addlw	1
  4189  060B  1903               	skipnz
  4190  060C  2E0E               	goto	u2492
  4191  060D  07B0               	addwf	___flmul@grs+2,f
  4192  060E                     u2492:
  4193  060E  082B               	movf	??___flmul+3,w
  4194  060F  1103               	clrz
  4195  0610  1803               	skipnc
  4196  0611  3E01               	addlw	1
  4197  0612  1903               	skipnz
  4198  0613  2E15               	goto	u2493
  4199  0614  07B1               	addwf	___flmul@grs+3,f
  4200  0615                     u2493:
  4201  0615                     l2068:
  4202  0615  3008               	movlw	8
  4203  0616  00A8               	movwf	??___flmul
  4204  0617                     u2505:
  4205  0617  1003               	clrc
  4206  0618  0DAE               	rlf	___flmul@grs,f
  4207  0619  0DAF               	rlf	___flmul@grs+1,f
  4208  061A  0DB0               	rlf	___flmul@grs+2,f
  4209  061B  0DB1               	rlf	___flmul@grs+3,f
  4210  061C  0BA8               	decfsz	??___flmul,f
  4211  061D  2E17               	goto	u2505
  4212  061E  0820               	movf	___flmul@b,w
  4213  061F  00A8               	movwf	??___flmul
  4214  0620  0828               	movf	??___flmul,w
  4215  0621  00F0               	movwf	__Umul8_16@multiplicand
  4216  0622  0824               	movf	___flmul@a,w
  4217  0623  120A  158A  23C2  120A  118A  	fcall	__Umul8_16
  4218  0628  0871               	movf	?__Umul8_16+1,w
  4219  0629  1283               	bcf	3,5	;RP0=0, select bank0
  4220  062A  1303               	bcf	3,6	;RP1=0, select bank0
  4221  062B  00B9               	movwf	___flmul@temp+1
  4222  062C  0870               	movf	?__Umul8_16,w
  4223  062D  00B8               	movwf	___flmul@temp
  4224  062E                     l2070:
  4225  062E  0838               	movf	___flmul@temp,w
  4226  062F  00A8               	movwf	??___flmul
  4227  0630  0839               	movf	___flmul@temp+1,w
  4228  0631  00A9               	movwf	??___flmul+1
  4229  0632  01AA               	clrf	??___flmul+2
  4230  0633  01AB               	clrf	??___flmul+3
  4231  0634  0828               	movf	??___flmul,w
  4232  0635  07AE               	addwf	___flmul@grs,f
  4233  0636  0829               	movf	??___flmul+1,w
  4234  0637  1103               	clrz
  4235  0638  1803               	skipnc
  4236  0639  3E01               	addlw	1
  4237  063A  1903               	skipnz
  4238  063B  2E3D               	goto	u2511
  4239  063C  07AF               	addwf	___flmul@grs+1,f
  4240  063D                     u2511:
  4241  063D  082A               	movf	??___flmul+2,w
  4242  063E  1103               	clrz
  4243  063F  1803               	skipnc
  4244  0640  3E01               	addlw	1
  4245  0641  1903               	skipnz
  4246  0642  2E44               	goto	u2512
  4247  0643  07B0               	addwf	___flmul@grs+2,f
  4248  0644                     u2512:
  4249  0644  082B               	movf	??___flmul+3,w
  4250  0645  1103               	clrz
  4251  0646  1803               	skipnc
  4252  0647  3E01               	addlw	1
  4253  0648  1903               	skipnz
  4254  0649  2E4B               	goto	u2513
  4255  064A  07B1               	addwf	___flmul@grs+3,f
  4256  064B                     u2513:
  4257  064B                     l2072:
  4258  064B  0821               	movf	___flmul@b+1,w
  4259  064C  00A8               	movwf	??___flmul
  4260  064D  0828               	movf	??___flmul,w
  4261  064E  00F0               	movwf	__Umul8_16@multiplicand
  4262  064F  0826               	movf	___flmul@a+2,w
  4263  0650  120A  158A  23C2  120A  118A  	fcall	__Umul8_16
  4264  0655  0871               	movf	?__Umul8_16+1,w
  4265  0656  1283               	bcf	3,5	;RP0=0, select bank0
  4266  0657  1303               	bcf	3,6	;RP1=0, select bank0
  4267  0658  00B9               	movwf	___flmul@temp+1
  4268  0659  0870               	movf	?__Umul8_16,w
  4269  065A  00B8               	movwf	___flmul@temp
  4270  065B  0838               	movf	___flmul@temp,w
  4271  065C  00A8               	movwf	??___flmul
  4272  065D  0839               	movf	___flmul@temp+1,w
  4273  065E  00A9               	movwf	??___flmul+1
  4274  065F  01AA               	clrf	??___flmul+2
  4275  0660  01AB               	clrf	??___flmul+3
  4276  0661  0828               	movf	??___flmul,w
  4277  0662  07B4               	addwf	___flmul@prod,f
  4278  0663  0829               	movf	??___flmul+1,w
  4279  0664  1103               	clrz
  4280  0665  1803               	skipnc
  4281  0666  3E01               	addlw	1
  4282  0667  1903               	skipnz
  4283  0668  2E6A               	goto	u2521
  4284  0669  07B5               	addwf	___flmul@prod+1,f
  4285  066A                     u2521:
  4286  066A  082A               	movf	??___flmul+2,w
  4287  066B  1103               	clrz
  4288  066C  1803               	skipnc
  4289  066D  3E01               	addlw	1
  4290  066E  1903               	skipnz
  4291  066F  2E71               	goto	u2522
  4292  0670  07B6               	addwf	___flmul@prod+2,f
  4293  0671                     u2522:
  4294  0671  082B               	movf	??___flmul+3,w
  4295  0672  1103               	clrz
  4296  0673  1803               	skipnc
  4297  0674  3E01               	addlw	1
  4298  0675  1903               	skipnz
  4299  0676  2E78               	goto	u2523
  4300  0677  07B7               	addwf	___flmul@prod+3,f
  4301  0678                     u2523:
  4302  0678                     l2074:
  4303  0678  0822               	movf	___flmul@b+2,w
  4304  0679  00A8               	movwf	??___flmul
  4305  067A  0828               	movf	??___flmul,w
  4306  067B  00F0               	movwf	__Umul8_16@multiplicand
  4307  067C  0825               	movf	___flmul@a+1,w
  4308  067D  120A  158A  23C2  120A  118A  	fcall	__Umul8_16
  4309  0682  0871               	movf	?__Umul8_16+1,w
  4310  0683  1283               	bcf	3,5	;RP0=0, select bank0
  4311  0684  1303               	bcf	3,6	;RP1=0, select bank0
  4312  0685  00B9               	movwf	___flmul@temp+1
  4313  0686  0870               	movf	?__Umul8_16,w
  4314  0687  00B8               	movwf	___flmul@temp
  4315  0688                     l2076:
  4316  0688  0838               	movf	___flmul@temp,w
  4317  0689  00A8               	movwf	??___flmul
  4318  068A  0839               	movf	___flmul@temp+1,w
  4319  068B  00A9               	movwf	??___flmul+1
  4320  068C  01AA               	clrf	??___flmul+2
  4321  068D  01AB               	clrf	??___flmul+3
  4322  068E  0828               	movf	??___flmul,w
  4323  068F  07B4               	addwf	___flmul@prod,f
  4324  0690  0829               	movf	??___flmul+1,w
  4325  0691  1103               	clrz
  4326  0692  1803               	skipnc
  4327  0693  3E01               	addlw	1
  4328  0694  1903               	skipnz
  4329  0695  2E97               	goto	u2531
  4330  0696  07B5               	addwf	___flmul@prod+1,f
  4331  0697                     u2531:
  4332  0697  082A               	movf	??___flmul+2,w
  4333  0698  1103               	clrz
  4334  0699  1803               	skipnc
  4335  069A  3E01               	addlw	1
  4336  069B  1903               	skipnz
  4337  069C  2E9E               	goto	u2532
  4338  069D  07B6               	addwf	___flmul@prod+2,f
  4339  069E                     u2532:
  4340  069E  082B               	movf	??___flmul+3,w
  4341  069F  1103               	clrz
  4342  06A0  1803               	skipnc
  4343  06A1  3E01               	addlw	1
  4344  06A2  1903               	skipnz
  4345  06A3  2EA5               	goto	u2533
  4346  06A4  07B7               	addwf	___flmul@prod+3,f
  4347  06A5                     u2533:
  4348  06A5  0822               	movf	___flmul@b+2,w
  4349  06A6  00A8               	movwf	??___flmul
  4350  06A7  0828               	movf	??___flmul,w
  4351  06A8  00F0               	movwf	__Umul8_16@multiplicand
  4352  06A9  0826               	movf	___flmul@a+2,w
  4353  06AA  120A  158A  23C2  120A  118A  	fcall	__Umul8_16
  4354  06AF  0871               	movf	?__Umul8_16+1,w
  4355  06B0  1283               	bcf	3,5	;RP0=0, select bank0
  4356  06B1  1303               	bcf	3,6	;RP1=0, select bank0
  4357  06B2  00B9               	movwf	___flmul@temp+1
  4358  06B3  0870               	movf	?__Umul8_16,w
  4359  06B4  00B8               	movwf	___flmul@temp
  4360  06B5                     l2078:
  4361  06B5  0838               	movf	___flmul@temp,w
  4362  06B6  00A8               	movwf	??___flmul
  4363  06B7  0839               	movf	___flmul@temp+1,w
  4364  06B8  00A9               	movwf	??___flmul+1
  4365  06B9  01AA               	clrf	??___flmul+2
  4366  06BA  01AB               	clrf	??___flmul+3
  4367  06BB  3008               	movlw	8
  4368  06BC                     u2545:
  4369  06BC  1003               	clrc
  4370  06BD  0DA8               	rlf	??___flmul,f
  4371  06BE  0DA9               	rlf	??___flmul+1,f
  4372  06BF  0DAA               	rlf	??___flmul+2,f
  4373  06C0  0DAB               	rlf	??___flmul+3,f
  4374  06C1                     u2540:
  4375  06C1  3EFF               	addlw	-1
  4376  06C2  1D03               	skipz
  4377  06C3  2EBC               	goto	u2545
  4378  06C4  0828               	movf	??___flmul,w
  4379  06C5  07B4               	addwf	___flmul@prod,f
  4380  06C6  0829               	movf	??___flmul+1,w
  4381  06C7  1103               	clrz
  4382  06C8  1803               	skipnc
  4383  06C9  3E01               	addlw	1
  4384  06CA  1903               	skipnz
  4385  06CB  2ECD               	goto	u2551
  4386  06CC  07B5               	addwf	___flmul@prod+1,f
  4387  06CD                     u2551:
  4388  06CD  082A               	movf	??___flmul+2,w
  4389  06CE  1103               	clrz
  4390  06CF  1803               	skipnc
  4391  06D0  3E01               	addlw	1
  4392  06D1  1903               	skipnz
  4393  06D2  2ED4               	goto	u2552
  4394  06D3  07B6               	addwf	___flmul@prod+2,f
  4395  06D4                     u2552:
  4396  06D4  082B               	movf	??___flmul+3,w
  4397  06D5  1103               	clrz
  4398  06D6  1803               	skipnc
  4399  06D7  3E01               	addlw	1
  4400  06D8  1903               	skipnz
  4401  06D9  2EDB               	goto	u2553
  4402  06DA  07B7               	addwf	___flmul@prod+3,f
  4403  06DB                     u2553:
  4404  06DB                     l2080:
  4405  06DB  082E               	movf	___flmul@grs,w
  4406  06DC  00A8               	movwf	??___flmul
  4407  06DD  082F               	movf	___flmul@grs+1,w
  4408  06DE  00A9               	movwf	??___flmul+1
  4409  06DF  0830               	movf	___flmul@grs+2,w
  4410  06E0  00AA               	movwf	??___flmul+2
  4411  06E1  0831               	movf	___flmul@grs+3,w
  4412  06E2  00AB               	movwf	??___flmul+3
  4413  06E3  3018               	movlw	24
  4414  06E4                     u2565:
  4415  06E4  1003               	clrc
  4416  06E5  0CAB               	rrf	??___flmul+3,f
  4417  06E6  0CAA               	rrf	??___flmul+2,f
  4418  06E7  0CA9               	rrf	??___flmul+1,f
  4419  06E8  0CA8               	rrf	??___flmul,f
  4420  06E9                     u2560:
  4421  06E9  3EFF               	addlw	-1
  4422  06EA  1D03               	skipz
  4423  06EB  2EE4               	goto	u2565
  4424  06EC  0828               	movf	??___flmul,w
  4425  06ED  07B4               	addwf	___flmul@prod,f
  4426  06EE  0829               	movf	??___flmul+1,w
  4427  06EF  1103               	clrz
  4428  06F0  1803               	skipnc
  4429  06F1  3E01               	addlw	1
  4430  06F2  1903               	skipnz
  4431  06F3  2EF5               	goto	u2571
  4432  06F4  07B5               	addwf	___flmul@prod+1,f
  4433  06F5                     u2571:
  4434  06F5  082A               	movf	??___flmul+2,w
  4435  06F6  1103               	clrz
  4436  06F7  1803               	skipnc
  4437  06F8  3E01               	addlw	1
  4438  06F9  1903               	skipnz
  4439  06FA  2EFC               	goto	u2572
  4440  06FB  07B6               	addwf	___flmul@prod+2,f
  4441  06FC                     u2572:
  4442  06FC  082B               	movf	??___flmul+3,w
  4443  06FD  1103               	clrz
  4444  06FE  1803               	skipnc
  4445  06FF  3E01               	addlw	1
  4446  0700  1903               	skipnz
  4447  0701  2F03               	goto	u2573
  4448  0702  07B7               	addwf	___flmul@prod+3,f
  4449  0703                     u2573:
  4450  0703                     l2082:
  4451  0703  3008               	movlw	8
  4452  0704  00A8               	movwf	??___flmul
  4453  0705                     u2585:
  4454  0705  1003               	clrc
  4455  0706  0DAE               	rlf	___flmul@grs,f
  4456  0707  0DAF               	rlf	___flmul@grs+1,f
  4457  0708  0DB0               	rlf	___flmul@grs+2,f
  4458  0709  0DB1               	rlf	___flmul@grs+3,f
  4459  070A  0BA8               	decfsz	??___flmul,f
  4460  070B  2F05               	goto	u2585
  4461  070C                     l2084:
  4462  070C  0833               	movf	___flmul@bexp,w
  4463  070D  0732               	addwf	___flmul@aexp,w
  4464  070E  00A8               	movwf	??___flmul
  4465  070F  01A9               	clrf	??___flmul+1
  4466  0710  0DA9               	rlf	??___flmul+1,f
  4467  0711  0828               	movf	??___flmul,w
  4468  0712  3E82               	addlw	130
  4469  0713  00B8               	movwf	___flmul@temp
  4470  0714  0829               	movf	??___flmul+1,w
  4471  0715  1803               	skipnc
  4472  0716  3E01               	addlw	1
  4473  0717  3EFF               	addlw	255
  4474  0718  00B9               	movwf	___flmul@temp+1
  4475  0719  2F37               	goto	l2096
  4476  071A                     l2086:
  4477  071A  3001               	movlw	1
  4478  071B  00A8               	movwf	??___flmul
  4479  071C                     u2595:
  4480  071C  1003               	clrc
  4481  071D  0DB4               	rlf	___flmul@prod,f
  4482  071E  0DB5               	rlf	___flmul@prod+1,f
  4483  071F  0DB6               	rlf	___flmul@prod+2,f
  4484  0720  0DB7               	rlf	___flmul@prod+3,f
  4485  0721  0BA8               	decfsz	??___flmul,f
  4486  0722  2F1C               	goto	u2595
  4487  0723                     l2088:
  4488  0723  1FB1               	btfss	___flmul@grs+3,7
  4489  0724  2F26               	goto	u2601
  4490  0725  2F27               	goto	u2600
  4491  0726                     u2601:
  4492  0726  2F28               	goto	l2092
  4493  0727                     u2600:
  4494  0727                     l2090:
  4495  0727  1434               	bsf	___flmul@prod,0
  4496  0728                     l2092:
  4497  0728  3001               	movlw	1
  4498  0729  00A8               	movwf	??___flmul
  4499  072A                     u2615:
  4500  072A  1003               	clrc
  4501  072B  0DAE               	rlf	___flmul@grs,f
  4502  072C  0DAF               	rlf	___flmul@grs+1,f
  4503  072D  0DB0               	rlf	___flmul@grs+2,f
  4504  072E  0DB1               	rlf	___flmul@grs+3,f
  4505  072F  0BA8               	decfsz	??___flmul,f
  4506  0730  2F2A               	goto	u2615
  4507  0731                     l2094:
  4508  0731  30FF               	movlw	255
  4509  0732  07B8               	addwf	___flmul@temp,f
  4510  0733  1803               	skipnc
  4511  0734  0AB9               	incf	___flmul@temp+1,f
  4512  0735  30FF               	movlw	255
  4513  0736  07B9               	addwf	___flmul@temp+1,f
  4514  0737                     l2096:
  4515  0737  1FB6               	btfss	___flmul@prod+2,7
  4516  0738  2F3A               	goto	u2621
  4517  0739  2F3B               	goto	u2620
  4518  073A                     u2621:
  4519  073A  2F1A               	goto	l2086
  4520  073B                     u2620:
  4521  073B                     l2098:
  4522  073B  01B2               	clrf	___flmul@aexp
  4523  073C                     l2100:
  4524  073C  1FB1               	btfss	___flmul@grs+3,7
  4525  073D  2F3F               	goto	u2631
  4526  073E  2F40               	goto	u2630
  4527  073F                     u2631:
  4528  073F  2F5C               	goto	l2108
  4529  0740                     u2630:
  4530  0740                     l2102:
  4531  0740  30FF               	movlw	255
  4532  0741  052E               	andwf	___flmul@grs,w
  4533  0742  00A8               	movwf	??___flmul
  4534  0743  30FF               	movlw	255
  4535  0744  052F               	andwf	___flmul@grs+1,w
  4536  0745  00A9               	movwf	??___flmul+1
  4537  0746  30FF               	movlw	255
  4538  0747  0530               	andwf	___flmul@grs+2,w
  4539  0748  00AA               	movwf	??___flmul+2
  4540  0749  307F               	movlw	127
  4541  074A  0531               	andwf	___flmul@grs+3,w
  4542  074B  00AB               	movwf	??___flmul+3
  4543  074C  082B               	movf	??___flmul+3,w
  4544  074D  042A               	iorwf	??___flmul+2,w
  4545  074E  0429               	iorwf	??___flmul+1,w
  4546  074F  0428               	iorwf	??___flmul,w
  4547  0750  1903               	skipnz
  4548  0751  2F53               	goto	u2641
  4549  0752  2F54               	goto	u2640
  4550  0753                     u2641:
  4551  0753  2F57               	goto	l634
  4552  0754                     u2640:
  4553  0754                     l2104:
  4554  0754  01B2               	clrf	___flmul@aexp
  4555  0755  0AB2               	incf	___flmul@aexp,f
  4556  0756  2F5C               	goto	l2108
  4557  0757                     l634:
  4558  0757  1C34               	btfss	___flmul@prod,0
  4559  0758  2F5A               	goto	u2651
  4560  0759  2F5B               	goto	u2650
  4561  075A                     u2651:
  4562  075A  2F5C               	goto	l2108
  4563  075B                     u2650:
  4564  075B  2F54               	goto	l2104
  4565  075C                     l2108:
  4566  075C  0832               	movf	___flmul@aexp,w
  4567  075D  1903               	btfsc	3,2
  4568  075E  2F60               	goto	u2661
  4569  075F  2F61               	goto	u2660
  4570  0760                     u2661:
  4571  0760  2F92               	goto	l2118
  4572  0761                     u2660:
  4573  0761                     l2110:
  4574  0761  3001               	movlw	1
  4575  0762  07B4               	addwf	___flmul@prod,f
  4576  0763  3000               	movlw	0
  4577  0764  1803               	skipnc
  4578  0765  3001               	movlw	1
  4579  0766  07B5               	addwf	___flmul@prod+1,f
  4580  0767  3000               	movlw	0
  4581  0768  1803               	skipnc
  4582  0769  3001               	movlw	1
  4583  076A  07B6               	addwf	___flmul@prod+2,f
  4584  076B  3000               	movlw	0
  4585  076C  1803               	skipnc
  4586  076D  3001               	movlw	1
  4587  076E  07B7               	addwf	___flmul@prod+3,f
  4588  076F                     l2112:
  4589  076F  1C37               	btfss	___flmul@prod+3,0
  4590  0770  2F72               	goto	u2671
  4591  0771  2F73               	goto	u2670
  4592  0772                     u2671:
  4593  0772  2F92               	goto	l2118
  4594  0773                     u2670:
  4595  0773                     l2114:
  4596  0773  0834               	movf	___flmul@prod,w
  4597  0774  00A8               	movwf	??___flmul
  4598  0775  0835               	movf	___flmul@prod+1,w
  4599  0776  00A9               	movwf	??___flmul+1
  4600  0777  0836               	movf	___flmul@prod+2,w
  4601  0778  00AA               	movwf	??___flmul+2
  4602  0779  0837               	movf	___flmul@prod+3,w
  4603  077A  00AB               	movwf	??___flmul+3
  4604  077B  3001               	movlw	1
  4605  077C  00AC               	movwf	??___flmul+4
  4606  077D                     u2685:
  4607  077D  0D2B               	rlf	??___flmul+3,w
  4608  077E  0CAB               	rrf	??___flmul+3,f
  4609  077F  0CAA               	rrf	??___flmul+2,f
  4610  0780  0CA9               	rrf	??___flmul+1,f
  4611  0781  0CA8               	rrf	??___flmul,f
  4612  0782                     u2680:
  4613  0782  0BAC               	decfsz	??___flmul+4,f
  4614  0783  2F7D               	goto	u2685
  4615  0784  082B               	movf	??___flmul+3,w
  4616  0785  00B7               	movwf	___flmul@prod+3
  4617  0786  082A               	movf	??___flmul+2,w
  4618  0787  00B6               	movwf	___flmul@prod+2
  4619  0788  0829               	movf	??___flmul+1,w
  4620  0789  00B5               	movwf	___flmul@prod+1
  4621  078A  0828               	movf	??___flmul,w
  4622  078B  00B4               	movwf	___flmul@prod
  4623  078C                     l2116:
  4624  078C  3001               	movlw	1
  4625  078D  07B8               	addwf	___flmul@temp,f
  4626  078E  1803               	skipnc
  4627  078F  0AB9               	incf	___flmul@temp+1,f
  4628  0790  3000               	movlw	0
  4629  0791  07B9               	addwf	___flmul@temp+1,f
  4630  0792                     l2118:
  4631  0792  0839               	movf	___flmul@temp+1,w
  4632  0793  3A80               	xorlw	128
  4633  0794  00FF               	movwf	btemp+1
  4634  0795  3080               	movlw	128
  4635  0796  027F               	subwf	btemp+1,w
  4636  0797  1D03               	skipz
  4637  0798  2F9B               	goto	u2695
  4638  0799  30FF               	movlw	255
  4639  079A  0238               	subwf	___flmul@temp,w
  4640  079B                     u2695:
  4641  079B  1C03               	skipc
  4642  079C  2F9E               	goto	u2691
  4643  079D  2F9F               	goto	u2690
  4644  079E                     u2691:
  4645  079E  2FAA               	goto	l2122
  4646  079F                     u2690:
  4647  079F                     l2120:
  4648  079F  307F               	movlw	127
  4649  07A0  1283               	bcf	3,5	;RP0=0, select bank0
  4650  07A1  1303               	bcf	3,6	;RP1=0, select bank0
  4651  07A2  00B7               	movwf	___flmul@prod+3
  4652  07A3  3080               	movlw	128
  4653  07A4  00B6               	movwf	___flmul@prod+2
  4654  07A5  3000               	movlw	0
  4655  07A6  00B5               	movwf	___flmul@prod+1
  4656  07A7  3000               	movlw	0
  4657  07A8  00B4               	movwf	___flmul@prod
  4658  07A9  2FDF               	goto	l640
  4659  07AA                     l2122:
  4660  07AA  1283               	bcf	3,5	;RP0=0, select bank0
  4661  07AB  1303               	bcf	3,6	;RP1=0, select bank0
  4662  07AC  0839               	movf	___flmul@temp+1,w
  4663  07AD  3A80               	xorlw	128
  4664  07AE  00FF               	movwf	btemp+1
  4665  07AF  3080               	movlw	128
  4666  07B0  027F               	subwf	btemp+1,w
  4667  07B1  1D03               	skipz
  4668  07B2  2FB5               	goto	u2705
  4669  07B3  3001               	movlw	1
  4670  07B4  0238               	subwf	___flmul@temp,w
  4671  07B5                     u2705:
  4672  07B5  1803               	skipnc
  4673  07B6  2FB8               	goto	u2701
  4674  07B7  2FB9               	goto	u2700
  4675  07B8                     u2701:
  4676  07B8  2FC5               	goto	l2128
  4677  07B9                     u2700:
  4678  07B9                     l2124:
  4679  07B9  3000               	movlw	0
  4680  07BA  1283               	bcf	3,5	;RP0=0, select bank0
  4681  07BB  1303               	bcf	3,6	;RP1=0, select bank0
  4682  07BC  00B7               	movwf	___flmul@prod+3
  4683  07BD  3000               	movlw	0
  4684  07BE  00B6               	movwf	___flmul@prod+2
  4685  07BF  3000               	movlw	0
  4686  07C0  00B5               	movwf	___flmul@prod+1
  4687  07C1  3000               	movlw	0
  4688  07C2  00B4               	movwf	___flmul@prod
  4689  07C3                     l2126:
  4690  07C3  01AD               	clrf	___flmul@sign
  4691  07C4  2FDF               	goto	l640
  4692  07C5                     l2128:
  4693  07C5  1283               	bcf	3,5	;RP0=0, select bank0
  4694  07C6  1303               	bcf	3,6	;RP1=0, select bank0
  4695  07C7  0838               	movf	___flmul@temp,w
  4696  07C8  00A8               	movwf	??___flmul
  4697  07C9  0828               	movf	??___flmul,w
  4698  07CA  00B3               	movwf	___flmul@bexp
  4699  07CB  30FF               	movlw	255
  4700  07CC  05B4               	andwf	___flmul@prod,f
  4701  07CD  30FF               	movlw	255
  4702  07CE  05B5               	andwf	___flmul@prod+1,f
  4703  07CF  307F               	movlw	127
  4704  07D0  05B6               	andwf	___flmul@prod+2,f
  4705  07D1  3000               	movlw	0
  4706  07D2  05B7               	andwf	___flmul@prod+3,f
  4707  07D3                     l2130:
  4708  07D3  1C33               	btfss	___flmul@bexp,0
  4709  07D4  2FD6               	goto	u2711
  4710  07D5  2FD7               	goto	u2710
  4711  07D6                     u2711:
  4712  07D6  2FD8               	goto	l2134
  4713  07D7                     u2710:
  4714  07D7                     l2132:
  4715  07D7  17B6               	bsf	___flmul@prod+2,7
  4716  07D8                     l2134:
  4717  07D8  0833               	movf	___flmul@bexp,w
  4718  07D9  00A8               	movwf	??___flmul
  4719  07DA  1003               	clrc
  4720  07DB  0C28               	rrf	??___flmul,w
  4721  07DC  00A9               	movwf	??___flmul+1
  4722  07DD  0829               	movf	??___flmul+1,w
  4723  07DE  00B7               	movwf	___flmul@prod+3
  4724  07DF                     l640:
  4725  07DF  082D               	movf	___flmul@sign,w
  4726  07E0  00A8               	movwf	??___flmul
  4727  07E1  0828               	movf	??___flmul,w
  4728  07E2  04B7               	iorwf	___flmul@prod+3,f
  4729  07E3                     l2136:
  4730  07E3  0837               	movf	___flmul@prod+3,w
  4731  07E4  00A3               	movwf	?___flmul+3
  4732  07E5  0836               	movf	___flmul@prod+2,w
  4733  07E6  00A2               	movwf	?___flmul+2
  4734  07E7  0835               	movf	___flmul@prod+1,w
  4735  07E8  00A1               	movwf	?___flmul+1
  4736  07E9  0834               	movf	___flmul@prod,w
  4737  07EA  00A0               	movwf	?___flmul
  4738  07EB                     l628:
  4739  07EB  0008               	return
  4740  07EC                     __end_of___flmul:
  4741                           
  4742                           	psect	text17
  4743  0BC2                     __ptext17:	
  4744 ;; *************** function __Umul8_16 *****************
  4745 ;; Defined at:
  4746 ;;		line 4 in file "C:\Program Files\Microchip\xc8\v2.31\pic\sources\c90\common\Umul8_16.c"
  4747 ;; Parameters:    Size  Location     Type
  4748 ;;  multiplier      1    wreg     unsigned char 
  4749 ;;  multiplicand    1    0[COMMON] unsigned char 
  4750 ;; Auto vars:     Size  Location     Type
  4751 ;;  multiplier      1    8[COMMON] unsigned char 
  4752 ;;  word_mpld       2    6[COMMON] unsigned int 
  4753 ;;  product         2    4[COMMON] unsigned int 
  4754 ;; Return value:  Size  Location     Type
  4755 ;;                  2    0[COMMON] unsigned int 
  4756 ;; Registers used:
  4757 ;;		wreg, status,2, status,0
  4758 ;; Tracked objects:
  4759 ;;		On entry : 0/0
  4760 ;;		On exit  : 0/0
  4761 ;;		Unchanged: 0/0
  4762 ;; Data sizes:     COMMON   BANK0   BANK1   BANK3   BANK2
  4763 ;;      Params:         2       0       0       0       0
  4764 ;;      Locals:         5       0       0       0       0
  4765 ;;      Temps:          2       0       0       0       0
  4766 ;;      Totals:         9       0       0       0       0
  4767 ;;Total ram usage:        9 bytes
  4768 ;; Hardware stack levels used:    1
  4769 ;; This function calls:
  4770 ;;		Nothing
  4771 ;; This function is called by:
  4772 ;;		___flmul
  4773 ;; This function uses a non-reentrant model
  4774 ;;
  4775                           
  4776                           
  4777                           ;psect for function __Umul8_16
  4778  0BC2                     __Umul8_16:
  4779                           
  4780                           ;incstack = 0
  4781                           ; Regs used in __Umul8_16: [wreg+status,2+status,0]
  4782                           ;__Umul8_16@multiplier stored from wreg
  4783  0BC2  00F8               	movwf	__Umul8_16@multiplier
  4784  0BC3                     l1724:
  4785  0BC3  01F4               	clrf	__Umul8_16@product
  4786  0BC4  01F5               	clrf	__Umul8_16@product+1
  4787  0BC5                     l1726:
  4788  0BC5  0870               	movf	__Umul8_16@multiplicand,w
  4789  0BC6  00F2               	movwf	??__Umul8_16
  4790  0BC7  01F3               	clrf	??__Umul8_16+1
  4791  0BC8  0872               	movf	??__Umul8_16,w
  4792  0BC9  00F6               	movwf	__Umul8_16@word_mpld
  4793  0BCA  0873               	movf	??__Umul8_16+1,w
  4794  0BCB  00F7               	movwf	__Umul8_16@word_mpld+1
  4795  0BCC                     l1728:
  4796  0BCC  1C78               	btfss	__Umul8_16@multiplier,0
  4797  0BCD  2BCF               	goto	u1751
  4798  0BCE  2BD0               	goto	u1750
  4799  0BCF                     u1751:
  4800  0BCF  2BD6               	goto	l647
  4801  0BD0                     u1750:
  4802  0BD0                     l1730:
  4803  0BD0  0876               	movf	__Umul8_16@word_mpld,w
  4804  0BD1  07F4               	addwf	__Umul8_16@product,f
  4805  0BD2  1803               	skipnc
  4806  0BD3  0AF5               	incf	__Umul8_16@product+1,f
  4807  0BD4  0877               	movf	__Umul8_16@word_mpld+1,w
  4808  0BD5  07F5               	addwf	__Umul8_16@product+1,f
  4809  0BD6                     l647:
  4810  0BD6  3001               	movlw	1
  4811  0BD7                     u1765:
  4812  0BD7  1003               	clrc
  4813  0BD8  0DF6               	rlf	__Umul8_16@word_mpld,f
  4814  0BD9  0DF7               	rlf	__Umul8_16@word_mpld+1,f
  4815  0BDA  3EFF               	addlw	-1
  4816  0BDB  1D03               	skipz
  4817  0BDC  2BD7               	goto	u1765
  4818  0BDD  1003               	clrc
  4819  0BDE  0CF8               	rrf	__Umul8_16@multiplier,f
  4820  0BDF                     l1732:
  4821  0BDF  0878               	movf	__Umul8_16@multiplier,w
  4822  0BE0  1D03               	btfss	3,2
  4823  0BE1  2BE3               	goto	u1771
  4824  0BE2  2BE4               	goto	u1770
  4825  0BE3                     u1771:
  4826  0BE3  2BCC               	goto	l1728
  4827  0BE4                     u1770:
  4828  0BE4                     l1734:
  4829  0BE4  0875               	movf	__Umul8_16@product+1,w
  4830  0BE5  00F1               	movwf	?__Umul8_16+1
  4831  0BE6  0874               	movf	__Umul8_16@product,w
  4832  0BE7  00F0               	movwf	?__Umul8_16
  4833  0BE8                     l649:
  4834  0BE8  0008               	return
  4835  0BE9                     __end_of__Umul8_16:
  4836                           
  4837                           	psect	text18
  4838  00C7                     __ptext18:	
  4839 ;; *************** function ___fldiv *****************
  4840 ;; Defined at:
  4841 ;;		line 8 in file "C:\Program Files\Microchip\xc8\v2.31\pic\sources\c90\common\sprcdiv.c"
  4842 ;; Parameters:    Size  Location     Type
  4843 ;;  a               4   26[BANK0 ] unsigned int 
  4844 ;;  b               4   30[BANK0 ] unsigned int 
  4845 ;; Auto vars:     Size  Location     Type
  4846 ;;  grs             4   46[BANK0 ] unsigned long 
  4847 ;;  rem             4   39[BANK0 ] unsigned long 
  4848 ;;  new_exp         2   44[BANK0 ] int 
  4849 ;;  aexp            1   51[BANK0 ] unsigned char 
  4850 ;;  bexp            1   50[BANK0 ] unsigned char 
  4851 ;;  sign            1   43[BANK0 ] unsigned char 
  4852 ;; Return value:  Size  Location     Type
  4853 ;;                  4   26[BANK0 ] unsigned char 
  4854 ;; Registers used:
  4855 ;;		wreg, status,2, status,0, btemp+1
  4856 ;; Tracked objects:
  4857 ;;		On entry : 0/0
  4858 ;;		On exit  : 0/0
  4859 ;;		Unchanged: 0/0
  4860 ;; Data sizes:     COMMON   BANK0   BANK1   BANK3   BANK2
  4861 ;;      Params:         0       8       0       0       0
  4862 ;;      Locals:         0      13       0       0       0
  4863 ;;      Temps:          0       5       0       0       0
  4864 ;;      Totals:         0      26       0       0       0
  4865 ;;Total ram usage:       26 bytes
  4866 ;; Hardware stack levels used:    1
  4867 ;; This function calls:
  4868 ;;		Nothing
  4869 ;; This function is called by:
  4870 ;;		_division
  4871 ;; This function uses a non-reentrant model
  4872 ;;
  4873                           
  4874                           
  4875                           ;psect for function ___fldiv
  4876  00C7                     ___fldiv:
  4877  00C7                     l1858:	
  4878                           ;incstack = 0
  4879                           ; Regs used in ___fldiv: [wreg+status,2+status,0+btemp+1]
  4880                           
  4881  00C7  1283               	bcf	3,5	;RP0=0, select bank0
  4882  00C8  1303               	bcf	3,6	;RP1=0, select bank0
  4883  00C9  0841               	movf	___fldiv@b+3,w
  4884  00CA  3980               	andlw	128
  4885  00CB  00C2               	movwf	??___fldiv
  4886  00CC  0842               	movf	??___fldiv,w
  4887  00CD  00CB               	movwf	___fldiv@sign
  4888  00CE                     l1860:
  4889  00CE  0841               	movf	___fldiv@b+3,w
  4890  00CF  00C2               	movwf	??___fldiv
  4891  00D0  0742               	addwf	??___fldiv,w
  4892  00D1  00C3               	movwf	??___fldiv+1
  4893  00D2  0843               	movf	??___fldiv+1,w
  4894  00D3  00D2               	movwf	___fldiv@bexp
  4895  00D4                     l1862:
  4896  00D4  1FC0               	btfss	___fldiv@b+2,7
  4897  00D5  28D7               	goto	u2061
  4898  00D6  28D8               	goto	u2060
  4899  00D7                     u2061:
  4900  00D7  28D9               	goto	l1866
  4901  00D8                     u2060:
  4902  00D8                     l1864:
  4903  00D8  1452               	bsf	___fldiv@bexp,0
  4904  00D9                     l1866:
  4905  00D9  0852               	movf	___fldiv@bexp,w
  4906  00DA  1903               	btfsc	3,2
  4907  00DB  28DD               	goto	u2071
  4908  00DC  28DE               	goto	u2070
  4909  00DD                     u2071:
  4910  00DD  28EE               	goto	l1876
  4911  00DE                     u2070:
  4912  00DE                     l1868:
  4913  00DE  0A52               	incf	___fldiv@bexp,w
  4914  00DF  1D03               	btfss	3,2
  4915  00E0  28E2               	goto	u2081
  4916  00E1  28E3               	goto	u2080
  4917  00E2                     u2081:
  4918  00E2  28EB               	goto	l1872
  4919  00E3                     u2080:
  4920  00E3                     l1870:
  4921  00E3  3000               	movlw	0
  4922  00E4  00C1               	movwf	___fldiv@b+3
  4923  00E5  3000               	movlw	0
  4924  00E6  00C0               	movwf	___fldiv@b+2
  4925  00E7  3000               	movlw	0
  4926  00E8  00BF               	movwf	___fldiv@b+1
  4927  00E9  3000               	movlw	0
  4928  00EA  00BE               	movwf	___fldiv@b
  4929  00EB                     l1872:
  4930  00EB  17C0               	bsf	___fldiv@b+2,7
  4931  00EC                     l1874:
  4932  00EC  01C1               	clrf	___fldiv@b+3
  4933  00ED  28F6               	goto	l1878
  4934  00EE                     l1876:
  4935  00EE  3000               	movlw	0
  4936  00EF  00C1               	movwf	___fldiv@b+3
  4937  00F0  3000               	movlw	0
  4938  00F1  00C0               	movwf	___fldiv@b+2
  4939  00F2  3000               	movlw	0
  4940  00F3  00BF               	movwf	___fldiv@b+1
  4941  00F4  3000               	movlw	0
  4942  00F5  00BE               	movwf	___fldiv@b
  4943  00F6                     l1878:
  4944  00F6  083D               	movf	___fldiv@a+3,w
  4945  00F7  3980               	andlw	128
  4946  00F8  00C2               	movwf	??___fldiv
  4947  00F9  0842               	movf	??___fldiv,w
  4948  00FA  06CB               	xorwf	___fldiv@sign,f
  4949  00FB                     l1880:
  4950  00FB  083D               	movf	___fldiv@a+3,w
  4951  00FC  00C2               	movwf	??___fldiv
  4952  00FD  0742               	addwf	??___fldiv,w
  4953  00FE  00C3               	movwf	??___fldiv+1
  4954  00FF  0843               	movf	??___fldiv+1,w
  4955  0100  00D3               	movwf	___fldiv@aexp
  4956  0101                     l1882:
  4957  0101  1FBC               	btfss	___fldiv@a+2,7
  4958  0102  2904               	goto	u2091
  4959  0103  2905               	goto	u2090
  4960  0104                     u2091:
  4961  0104  2906               	goto	l1886
  4962  0105                     u2090:
  4963  0105                     l1884:
  4964  0105  1453               	bsf	___fldiv@aexp,0
  4965  0106                     l1886:
  4966  0106  0853               	movf	___fldiv@aexp,w
  4967  0107  1903               	btfsc	3,2
  4968  0108  290A               	goto	u2101
  4969  0109  290B               	goto	u2100
  4970  010A                     u2101:
  4971  010A  291B               	goto	l1896
  4972  010B                     u2100:
  4973  010B                     l1888:
  4974  010B  0A53               	incf	___fldiv@aexp,w
  4975  010C  1D03               	btfss	3,2
  4976  010D  290F               	goto	u2111
  4977  010E  2910               	goto	u2110
  4978  010F                     u2111:
  4979  010F  2918               	goto	l1892
  4980  0110                     u2110:
  4981  0110                     l1890:
  4982  0110  3000               	movlw	0
  4983  0111  00BD               	movwf	___fldiv@a+3
  4984  0112  3000               	movlw	0
  4985  0113  00BC               	movwf	___fldiv@a+2
  4986  0114  3000               	movlw	0
  4987  0115  00BB               	movwf	___fldiv@a+1
  4988  0116  3000               	movlw	0
  4989  0117  00BA               	movwf	___fldiv@a
  4990  0118                     l1892:
  4991  0118  17BC               	bsf	___fldiv@a+2,7
  4992  0119                     l1894:
  4993  0119  01BD               	clrf	___fldiv@a+3
  4994  011A  2923               	goto	l588
  4995  011B                     l1896:
  4996  011B  3000               	movlw	0
  4997  011C  00BD               	movwf	___fldiv@a+3
  4998  011D  3000               	movlw	0
  4999  011E  00BC               	movwf	___fldiv@a+2
  5000  011F  3000               	movlw	0
  5001  0120  00BB               	movwf	___fldiv@a+1
  5002  0121  3000               	movlw	0
  5003  0122  00BA               	movwf	___fldiv@a
  5004  0123                     l588:
  5005  0123  083D               	movf	___fldiv@a+3,w
  5006  0124  043C               	iorwf	___fldiv@a+2,w
  5007  0125  043B               	iorwf	___fldiv@a+1,w
  5008  0126  043A               	iorwf	___fldiv@a,w
  5009  0127  1D03               	skipz
  5010  0128  292A               	goto	u2121
  5011  0129  292B               	goto	u2120
  5012  012A                     u2121:
  5013  012A  2944               	goto	l1906
  5014  012B                     u2120:
  5015  012B                     l1898:
  5016  012B  3000               	movlw	0
  5017  012C  00C1               	movwf	___fldiv@b+3
  5018  012D  3000               	movlw	0
  5019  012E  00C0               	movwf	___fldiv@b+2
  5020  012F  3000               	movlw	0
  5021  0130  00BF               	movwf	___fldiv@b+1
  5022  0131  3000               	movlw	0
  5023  0132  00BE               	movwf	___fldiv@b
  5024  0133  3080               	movlw	128
  5025  0134  04C0               	iorwf	___fldiv@b+2,f
  5026  0135  307F               	movlw	127
  5027  0136  04C1               	iorwf	___fldiv@b+3,f
  5028  0137                     l1900:
  5029  0137  084B               	movf	___fldiv@sign,w
  5030  0138  00C2               	movwf	??___fldiv
  5031  0139  0842               	movf	??___fldiv,w
  5032  013A  04C1               	iorwf	___fldiv@b+3,f
  5033  013B                     l1902:
  5034  013B  0841               	movf	___fldiv@b+3,w
  5035  013C  00BD               	movwf	?___fldiv+3
  5036  013D  0840               	movf	___fldiv@b+2,w
  5037  013E  00BC               	movwf	?___fldiv+2
  5038  013F  083F               	movf	___fldiv@b+1,w
  5039  0140  00BB               	movwf	?___fldiv+1
  5040  0141  083E               	movf	___fldiv@b,w
  5041  0142  00BA               	movwf	?___fldiv
  5042  0143  2AA3               	goto	l590
  5043  0144                     l1906:
  5044  0144  0852               	movf	___fldiv@bexp,w
  5045  0145  1D03               	btfss	3,2
  5046  0146  2948               	goto	u2131
  5047  0147  2949               	goto	u2130
  5048  0148                     u2131:
  5049  0148  2952               	goto	l1912
  5050  0149                     u2130:
  5051  0149                     l1908:
  5052  0149  3000               	movlw	0
  5053  014A  00BD               	movwf	?___fldiv+3
  5054  014B  3000               	movlw	0
  5055  014C  00BC               	movwf	?___fldiv+2
  5056  014D  3000               	movlw	0
  5057  014E  00BB               	movwf	?___fldiv+1
  5058  014F  3000               	movlw	0
  5059  0150  00BA               	movwf	?___fldiv
  5060  0151  2AA3               	goto	l590
  5061  0152                     l1912:
  5062  0152  0852               	movf	___fldiv@bexp,w
  5063  0153  00C2               	movwf	??___fldiv
  5064  0154  01C3               	clrf	??___fldiv+1
  5065  0155  0843               	movf	??___fldiv+1,w
  5066  0156  00C5               	movwf	??___fldiv+3
  5067  0157  0853               	movf	___fldiv@aexp,w
  5068  0158  0242               	subwf	??___fldiv,w
  5069  0159  00C4               	movwf	??___fldiv+2
  5070  015A  1C03               	skipc
  5071  015B  03C5               	decf	??___fldiv+3,f
  5072  015C  0844               	movf	??___fldiv+2,w
  5073  015D  3E7F               	addlw	127
  5074  015E  00CC               	movwf	___fldiv@new_exp
  5075  015F  0845               	movf	??___fldiv+3,w
  5076  0160  1803               	skipnc
  5077  0161  3E01               	addlw	1
  5078  0162  3E00               	addlw	0
  5079  0163  00CD               	movwf	___fldiv@new_exp+1
  5080  0164                     l1914:
  5081  0164  0841               	movf	___fldiv@b+3,w
  5082  0165  00CA               	movwf	___fldiv@rem+3
  5083  0166  0840               	movf	___fldiv@b+2,w
  5084  0167  00C9               	movwf	___fldiv@rem+2
  5085  0168  083F               	movf	___fldiv@b+1,w
  5086  0169  00C8               	movwf	___fldiv@rem+1
  5087  016A  083E               	movf	___fldiv@b,w
  5088  016B  00C7               	movwf	___fldiv@rem
  5089  016C                     l1916:
  5090  016C  3000               	movlw	0
  5091  016D  00C1               	movwf	___fldiv@b+3
  5092  016E  3000               	movlw	0
  5093  016F  00C0               	movwf	___fldiv@b+2
  5094  0170  3000               	movlw	0
  5095  0171  00BF               	movwf	___fldiv@b+1
  5096  0172  3000               	movlw	0
  5097  0173  00BE               	movwf	___fldiv@b
  5098  0174                     l1918:
  5099  0174  3000               	movlw	0
  5100  0175  00D1               	movwf	___fldiv@grs+3
  5101  0176  3000               	movlw	0
  5102  0177  00D0               	movwf	___fldiv@grs+2
  5103  0178  3000               	movlw	0
  5104  0179  00CF               	movwf	___fldiv@grs+1
  5105  017A  3000               	movlw	0
  5106  017B  00CE               	movwf	___fldiv@grs
  5107  017C                     l1920:
  5108  017C  01D3               	clrf	___fldiv@aexp
  5109  017D  29C8               	goto	l1940
  5110  017E                     l1922:
  5111  017E  0853               	movf	___fldiv@aexp,w
  5112  017F  1903               	btfsc	3,2
  5113  0180  2982               	goto	u2141
  5114  0181  2983               	goto	u2140
  5115  0182                     u2141:
  5116  0182  29A3               	goto	l1932
  5117  0183                     u2140:
  5118  0183                     l1924:
  5119  0183  3001               	movlw	1
  5120  0184  00C2               	movwf	??___fldiv
  5121  0185                     u2155:
  5122  0185  1003               	clrc
  5123  0186  0DC7               	rlf	___fldiv@rem,f
  5124  0187  0DC8               	rlf	___fldiv@rem+1,f
  5125  0188  0DC9               	rlf	___fldiv@rem+2,f
  5126  0189  0DCA               	rlf	___fldiv@rem+3,f
  5127  018A  0BC2               	decfsz	??___fldiv,f
  5128  018B  2985               	goto	u2155
  5129  018C  3001               	movlw	1
  5130  018D  00C2               	movwf	??___fldiv
  5131  018E                     u2165:
  5132  018E  1003               	clrc
  5133  018F  0DBE               	rlf	___fldiv@b,f
  5134  0190  0DBF               	rlf	___fldiv@b+1,f
  5135  0191  0DC0               	rlf	___fldiv@b+2,f
  5136  0192  0DC1               	rlf	___fldiv@b+3,f
  5137  0193  0BC2               	decfsz	??___fldiv,f
  5138  0194  298E               	goto	u2165
  5139  0195                     l1926:
  5140  0195  1FD1               	btfss	___fldiv@grs+3,7
  5141  0196  2998               	goto	u2171
  5142  0197  2999               	goto	u2170
  5143  0198                     u2171:
  5144  0198  299A               	goto	l1930
  5145  0199                     u2170:
  5146  0199                     l1928:
  5147  0199  143E               	bsf	___fldiv@b,0
  5148  019A                     l1930:
  5149  019A  3001               	movlw	1
  5150  019B  00C2               	movwf	??___fldiv
  5151  019C                     u2185:
  5152  019C  1003               	clrc
  5153  019D  0DCE               	rlf	___fldiv@grs,f
  5154  019E  0DCF               	rlf	___fldiv@grs+1,f
  5155  019F  0DD0               	rlf	___fldiv@grs+2,f
  5156  01A0  0DD1               	rlf	___fldiv@grs+3,f
  5157  01A1  0BC2               	decfsz	??___fldiv,f
  5158  01A2  299C               	goto	u2185
  5159  01A3                     l1932:
  5160  01A3  083D               	movf	___fldiv@a+3,w
  5161  01A4  024A               	subwf	___fldiv@rem+3,w
  5162  01A5  1D03               	skipz
  5163  01A6  29B1               	goto	u2195
  5164  01A7  083C               	movf	___fldiv@a+2,w
  5165  01A8  0249               	subwf	___fldiv@rem+2,w
  5166  01A9  1D03               	skipz
  5167  01AA  29B1               	goto	u2195
  5168  01AB  083B               	movf	___fldiv@a+1,w
  5169  01AC  0248               	subwf	___fldiv@rem+1,w
  5170  01AD  1D03               	skipz
  5171  01AE  29B1               	goto	u2195
  5172  01AF  083A               	movf	___fldiv@a,w
  5173  01B0  0247               	subwf	___fldiv@rem,w
  5174  01B1                     u2195:
  5175  01B1  1C03               	skipc
  5176  01B2  29B4               	goto	u2191
  5177  01B3  29B5               	goto	u2190
  5178  01B4                     u2191:
  5179  01B4  29C4               	goto	l1938
  5180  01B5                     u2190:
  5181  01B5                     l1934:
  5182  01B5  1751               	bsf	___fldiv@grs+3,6
  5183  01B6                     l1936:
  5184  01B6  083A               	movf	___fldiv@a,w
  5185  01B7  02C7               	subwf	___fldiv@rem,f
  5186  01B8  083B               	movf	___fldiv@a+1,w
  5187  01B9  1C03               	skipc
  5188  01BA  0F3B               	incfsz	___fldiv@a+1,w
  5189  01BB  02C8               	subwf	___fldiv@rem+1,f
  5190  01BC  083C               	movf	___fldiv@a+2,w
  5191  01BD  1C03               	skipc
  5192  01BE  0F3C               	incfsz	___fldiv@a+2,w
  5193  01BF  02C9               	subwf	___fldiv@rem+2,f
  5194  01C0  083D               	movf	___fldiv@a+3,w
  5195  01C1  1C03               	skipc
  5196  01C2  0F3D               	incfsz	___fldiv@a+3,w
  5197  01C3  02CA               	subwf	___fldiv@rem+3,f
  5198  01C4                     l1938:
  5199  01C4  3001               	movlw	1
  5200  01C5  00C2               	movwf	??___fldiv
  5201  01C6  0842               	movf	??___fldiv,w
  5202  01C7  07D3               	addwf	___fldiv@aexp,f
  5203  01C8                     l1940:
  5204  01C8  301A               	movlw	26
  5205  01C9  0253               	subwf	___fldiv@aexp,w
  5206  01CA  1C03               	skipc
  5207  01CB  29CD               	goto	u2201
  5208  01CC  29CE               	goto	u2200
  5209  01CD                     u2201:
  5210  01CD  297E               	goto	l1922
  5211  01CE                     u2200:
  5212  01CE                     l1942:
  5213  01CE  084A               	movf	___fldiv@rem+3,w
  5214  01CF  0449               	iorwf	___fldiv@rem+2,w
  5215  01D0  0448               	iorwf	___fldiv@rem+1,w
  5216  01D1  0447               	iorwf	___fldiv@rem,w
  5217  01D2  1903               	skipnz
  5218  01D3  29D5               	goto	u2211
  5219  01D4  29D6               	goto	u2210
  5220  01D5                     u2211:
  5221  01D5  29F5               	goto	l1956
  5222  01D6                     u2210:
  5223  01D6                     l1944:
  5224  01D6  144E               	bsf	___fldiv@grs,0
  5225  01D7  29F5               	goto	l1956
  5226  01D8                     l1946:
  5227  01D8  3001               	movlw	1
  5228  01D9  00C2               	movwf	??___fldiv
  5229  01DA                     u2225:
  5230  01DA  1003               	clrc
  5231  01DB  0DBE               	rlf	___fldiv@b,f
  5232  01DC  0DBF               	rlf	___fldiv@b+1,f
  5233  01DD  0DC0               	rlf	___fldiv@b+2,f
  5234  01DE  0DC1               	rlf	___fldiv@b+3,f
  5235  01DF  0BC2               	decfsz	??___fldiv,f
  5236  01E0  29DA               	goto	u2225
  5237  01E1                     l1948:
  5238  01E1  1FD1               	btfss	___fldiv@grs+3,7
  5239  01E2  29E4               	goto	u2231
  5240  01E3  29E5               	goto	u2230
  5241  01E4                     u2231:
  5242  01E4  29E6               	goto	l1952
  5243  01E5                     u2230:
  5244  01E5                     l1950:
  5245  01E5  143E               	bsf	___fldiv@b,0
  5246  01E6                     l1952:
  5247  01E6  3001               	movlw	1
  5248  01E7  00C2               	movwf	??___fldiv
  5249  01E8                     u2245:
  5250  01E8  1003               	clrc
  5251  01E9  0DCE               	rlf	___fldiv@grs,f
  5252  01EA  0DCF               	rlf	___fldiv@grs+1,f
  5253  01EB  0DD0               	rlf	___fldiv@grs+2,f
  5254  01EC  0DD1               	rlf	___fldiv@grs+3,f
  5255  01ED  0BC2               	decfsz	??___fldiv,f
  5256  01EE  29E8               	goto	u2245
  5257  01EF                     l1954:
  5258  01EF  30FF               	movlw	255
  5259  01F0  07CC               	addwf	___fldiv@new_exp,f
  5260  01F1  1803               	skipnc
  5261  01F2  0ACD               	incf	___fldiv@new_exp+1,f
  5262  01F3  30FF               	movlw	255
  5263  01F4  07CD               	addwf	___fldiv@new_exp+1,f
  5264  01F5                     l1956:
  5265  01F5  1FC0               	btfss	___fldiv@b+2,7
  5266  01F6  29F8               	goto	u2251
  5267  01F7  29F9               	goto	u2250
  5268  01F8                     u2251:
  5269  01F8  29D8               	goto	l1946
  5270  01F9                     u2250:
  5271  01F9                     l1958:
  5272  01F9  01D3               	clrf	___fldiv@aexp
  5273  01FA                     l1960:
  5274  01FA  1FD1               	btfss	___fldiv@grs+3,7
  5275  01FB  29FD               	goto	u2261
  5276  01FC  29FE               	goto	u2260
  5277  01FD                     u2261:
  5278  01FD  2A1A               	goto	l1968
  5279  01FE                     u2260:
  5280  01FE                     l1962:
  5281  01FE  30FF               	movlw	255
  5282  01FF  054E               	andwf	___fldiv@grs,w
  5283  0200  00C2               	movwf	??___fldiv
  5284  0201  30FF               	movlw	255
  5285  0202  054F               	andwf	___fldiv@grs+1,w
  5286  0203  00C3               	movwf	??___fldiv+1
  5287  0204  30FF               	movlw	255
  5288  0205  0550               	andwf	___fldiv@grs+2,w
  5289  0206  00C4               	movwf	??___fldiv+2
  5290  0207  307F               	movlw	127
  5291  0208  0551               	andwf	___fldiv@grs+3,w
  5292  0209  00C5               	movwf	??___fldiv+3
  5293  020A  0845               	movf	??___fldiv+3,w
  5294  020B  0444               	iorwf	??___fldiv+2,w
  5295  020C  0443               	iorwf	??___fldiv+1,w
  5296  020D  0442               	iorwf	??___fldiv,w
  5297  020E  1903               	skipnz
  5298  020F  2A11               	goto	u2271
  5299  0210  2A12               	goto	u2270
  5300  0211                     u2271:
  5301  0211  2A15               	goto	l604
  5302  0212                     u2270:
  5303  0212                     l1964:
  5304  0212  01D3               	clrf	___fldiv@aexp
  5305  0213  0AD3               	incf	___fldiv@aexp,f
  5306  0214  2A1A               	goto	l1968
  5307  0215                     l604:
  5308  0215  1C3E               	btfss	___fldiv@b,0
  5309  0216  2A18               	goto	u2281
  5310  0217  2A19               	goto	u2280
  5311  0218                     u2281:
  5312  0218  2A1A               	goto	l1968
  5313  0219                     u2280:
  5314  0219  2A12               	goto	l1964
  5315  021A                     l1968:
  5316  021A  0853               	movf	___fldiv@aexp,w
  5317  021B  1903               	btfsc	3,2
  5318  021C  2A1E               	goto	u2291
  5319  021D  2A1F               	goto	u2290
  5320  021E                     u2291:
  5321  021E  2A50               	goto	l1978
  5322  021F                     u2290:
  5323  021F                     l1970:
  5324  021F  3001               	movlw	1
  5325  0220  07BE               	addwf	___fldiv@b,f
  5326  0221  3000               	movlw	0
  5327  0222  1803               	skipnc
  5328  0223  3001               	movlw	1
  5329  0224  07BF               	addwf	___fldiv@b+1,f
  5330  0225  3000               	movlw	0
  5331  0226  1803               	skipnc
  5332  0227  3001               	movlw	1
  5333  0228  07C0               	addwf	___fldiv@b+2,f
  5334  0229  3000               	movlw	0
  5335  022A  1803               	skipnc
  5336  022B  3001               	movlw	1
  5337  022C  07C1               	addwf	___fldiv@b+3,f
  5338  022D                     l1972:
  5339  022D  1C41               	btfss	___fldiv@b+3,0
  5340  022E  2A30               	goto	u2301
  5341  022F  2A31               	goto	u2300
  5342  0230                     u2301:
  5343  0230  2A50               	goto	l1978
  5344  0231                     u2300:
  5345  0231                     l1974:
  5346  0231  083E               	movf	___fldiv@b,w
  5347  0232  00C2               	movwf	??___fldiv
  5348  0233  083F               	movf	___fldiv@b+1,w
  5349  0234  00C3               	movwf	??___fldiv+1
  5350  0235  0840               	movf	___fldiv@b+2,w
  5351  0236  00C4               	movwf	??___fldiv+2
  5352  0237  0841               	movf	___fldiv@b+3,w
  5353  0238  00C5               	movwf	??___fldiv+3
  5354  0239  3001               	movlw	1
  5355  023A  00C6               	movwf	??___fldiv+4
  5356  023B                     u2315:
  5357  023B  0D45               	rlf	??___fldiv+3,w
  5358  023C  0CC5               	rrf	??___fldiv+3,f
  5359  023D  0CC4               	rrf	??___fldiv+2,f
  5360  023E  0CC3               	rrf	??___fldiv+1,f
  5361  023F  0CC2               	rrf	??___fldiv,f
  5362  0240                     u2310:
  5363  0240  0BC6               	decfsz	??___fldiv+4,f
  5364  0241  2A3B               	goto	u2315
  5365  0242  0845               	movf	??___fldiv+3,w
  5366  0243  00C1               	movwf	___fldiv@b+3
  5367  0244  0844               	movf	??___fldiv+2,w
  5368  0245  00C0               	movwf	___fldiv@b+2
  5369  0246  0843               	movf	??___fldiv+1,w
  5370  0247  00BF               	movwf	___fldiv@b+1
  5371  0248  0842               	movf	??___fldiv,w
  5372  0249  00BE               	movwf	___fldiv@b
  5373  024A                     l1976:
  5374  024A  3001               	movlw	1
  5375  024B  07CC               	addwf	___fldiv@new_exp,f
  5376  024C  1803               	skipnc
  5377  024D  0ACD               	incf	___fldiv@new_exp+1,f
  5378  024E  3000               	movlw	0
  5379  024F  07CD               	addwf	___fldiv@new_exp+1,f
  5380  0250                     l1978:
  5381  0250  084D               	movf	___fldiv@new_exp+1,w
  5382  0251  3A80               	xorlw	128
  5383  0252  00FF               	movwf	btemp+1
  5384  0253  3080               	movlw	128
  5385  0254  027F               	subwf	btemp+1,w
  5386  0255  1D03               	skipz
  5387  0256  2A59               	goto	u2325
  5388  0257  30FF               	movlw	255
  5389  0258  024C               	subwf	___fldiv@new_exp,w
  5390  0259                     u2325:
  5391  0259  1C03               	skipc
  5392  025A  2A5C               	goto	u2321
  5393  025B  2A5D               	goto	u2320
  5394  025C                     u2321:
  5395  025C  2A6B               	goto	l1982
  5396  025D                     u2320:
  5397  025D                     l1980:
  5398  025D  30FF               	movlw	255
  5399  025E  1283               	bcf	3,5	;RP0=0, select bank0
  5400  025F  1303               	bcf	3,6	;RP1=0, select bank0
  5401  0260  00CC               	movwf	___fldiv@new_exp
  5402  0261  3000               	movlw	0
  5403  0262  00CD               	movwf	___fldiv@new_exp+1
  5404  0263  3000               	movlw	0
  5405  0264  00C1               	movwf	___fldiv@b+3
  5406  0265  3000               	movlw	0
  5407  0266  00C0               	movwf	___fldiv@b+2
  5408  0267  3000               	movlw	0
  5409  0268  00BF               	movwf	___fldiv@b+1
  5410  0269  3000               	movlw	0
  5411  026A  00BE               	movwf	___fldiv@b
  5412  026B                     l1982:
  5413  026B  1283               	bcf	3,5	;RP0=0, select bank0
  5414  026C  1303               	bcf	3,6	;RP1=0, select bank0
  5415  026D  084D               	movf	___fldiv@new_exp+1,w
  5416  026E  3A80               	xorlw	128
  5417  026F  00FF               	movwf	btemp+1
  5418  0270  3080               	movlw	128
  5419  0271  027F               	subwf	btemp+1,w
  5420  0272  1D03               	skipz
  5421  0273  2A76               	goto	u2335
  5422  0274  3001               	movlw	1
  5423  0275  024C               	subwf	___fldiv@new_exp,w
  5424  0276                     u2335:
  5425  0276  1803               	skipnc
  5426  0277  2A79               	goto	u2331
  5427  0278  2A7A               	goto	u2330
  5428  0279                     u2331:
  5429  0279  2A87               	goto	l610
  5430  027A                     u2330:
  5431  027A                     l1984:
  5432  027A  1283               	bcf	3,5	;RP0=0, select bank0
  5433  027B  1303               	bcf	3,6	;RP1=0, select bank0
  5434  027C  01CC               	clrf	___fldiv@new_exp
  5435  027D  01CD               	clrf	___fldiv@new_exp+1
  5436  027E                     l1986:
  5437  027E  3000               	movlw	0
  5438  027F  00C1               	movwf	___fldiv@b+3
  5439  0280  3000               	movlw	0
  5440  0281  00C0               	movwf	___fldiv@b+2
  5441  0282  3000               	movlw	0
  5442  0283  00BF               	movwf	___fldiv@b+1
  5443  0284  3000               	movlw	0
  5444  0285  00BE               	movwf	___fldiv@b
  5445  0286                     l1988:
  5446  0286  01CB               	clrf	___fldiv@sign
  5447  0287                     l610:
  5448  0287  1283               	bcf	3,5	;RP0=0, select bank0
  5449  0288  1303               	bcf	3,6	;RP1=0, select bank0
  5450  0289  084C               	movf	___fldiv@new_exp,w
  5451  028A  00C2               	movwf	??___fldiv
  5452  028B  0842               	movf	??___fldiv,w
  5453  028C  00D2               	movwf	___fldiv@bexp
  5454  028D                     l1990:
  5455  028D  1C52               	btfss	___fldiv@bexp,0
  5456  028E  2A90               	goto	u2341
  5457  028F  2A91               	goto	u2340
  5458  0290                     u2341:
  5459  0290  2A93               	goto	l1994
  5460  0291                     u2340:
  5461  0291                     l1992:
  5462  0291  17C0               	bsf	___fldiv@b+2,7
  5463  0292  2A97               	goto	l612
  5464  0293                     l1994:
  5465  0293  307F               	movlw	127
  5466  0294  00C2               	movwf	??___fldiv
  5467  0295  0842               	movf	??___fldiv,w
  5468  0296  05C0               	andwf	___fldiv@b+2,f
  5469  0297                     l612:
  5470  0297  0852               	movf	___fldiv@bexp,w
  5471  0298  00C2               	movwf	??___fldiv
  5472  0299  1003               	clrc
  5473  029A  0C42               	rrf	??___fldiv,w
  5474  029B  00C3               	movwf	??___fldiv+1
  5475  029C  0843               	movf	??___fldiv+1,w
  5476  029D  00C1               	movwf	___fldiv@b+3
  5477  029E  084B               	movf	___fldiv@sign,w
  5478  029F  00C2               	movwf	??___fldiv
  5479  02A0  0842               	movf	??___fldiv,w
  5480  02A1  04C1               	iorwf	___fldiv@b+3,f
  5481  02A2  293B               	goto	l1902
  5482  02A3                     l590:
  5483  02A3  0008               	return
  5484  02A4                     __end_of___fldiv:
  5485                           
  5486                           	psect	text19
  5487  0B36                     __ptext19:	
  5488 ;; *************** function ___bmul *****************
  5489 ;; Defined at:
  5490 ;;		line 4 in file "C:\Program Files\Microchip\xc8\v2.31\pic\sources\c90\common\Umul8.c"
  5491 ;; Parameters:    Size  Location     Type
  5492 ;;  multiplier      1    wreg     unsigned char 
  5493 ;;  multiplicand    1    0[COMMON] unsigned char 
  5494 ;; Auto vars:     Size  Location     Type
  5495 ;;  multiplier      1    3[COMMON] unsigned char 
  5496 ;;  product         1    2[COMMON] unsigned char 
  5497 ;; Return value:  Size  Location     Type
  5498 ;;                  1    wreg      unsigned char 
  5499 ;; Registers used:
  5500 ;;		wreg, status,2, status,0
  5501 ;; Tracked objects:
  5502 ;;		On entry : 0/0
  5503 ;;		On exit  : 0/0
  5504 ;;		Unchanged: 0/0
  5505 ;; Data sizes:     COMMON   BANK0   BANK1   BANK3   BANK2
  5506 ;;      Params:         1       0       0       0       0
  5507 ;;      Locals:         2       0       0       0       0
  5508 ;;      Temps:          1       0       0       0       0
  5509 ;;      Totals:         4       0       0       0       0
  5510 ;;Total ram usage:        4 bytes
  5511 ;; Hardware stack levels used:    1
  5512 ;; This function calls:
  5513 ;;		Nothing
  5514 ;; This function is called by:
  5515 ;;		_division
  5516 ;; This function uses a non-reentrant model
  5517 ;;
  5518                           
  5519                           
  5520                           ;psect for function ___bmul
  5521  0B36                     ___bmul:
  5522                           
  5523                           ;incstack = 0
  5524                           ; Regs used in ___bmul: [wreg+status,2+status,0]
  5525                           ;___bmul@multiplier stored from wreg
  5526  0B36  00F3               	movwf	___bmul@multiplier
  5527  0B37                     l1764:
  5528  0B37  01F2               	clrf	___bmul@product
  5529  0B38                     l1766:
  5530  0B38  1C73               	btfss	___bmul@multiplier,0
  5531  0B39  2B3B               	goto	u1841
  5532  0B3A  2B3C               	goto	u1840
  5533  0B3B                     u1841:
  5534  0B3B  2B40               	goto	l1770
  5535  0B3C                     u1840:
  5536  0B3C                     l1768:
  5537  0B3C  0870               	movf	___bmul@multiplicand,w
  5538  0B3D  00F1               	movwf	??___bmul
  5539  0B3E  0871               	movf	??___bmul,w
  5540  0B3F  07F2               	addwf	___bmul@product,f
  5541  0B40                     l1770:
  5542  0B40  1003               	clrc
  5543  0B41  0DF0               	rlf	___bmul@multiplicand,f
  5544  0B42                     l1772:
  5545  0B42  1003               	clrc
  5546  0B43  0CF3               	rrf	___bmul@multiplier,f
  5547  0B44  0873               	movf	___bmul@multiplier,w
  5548  0B45  1D03               	btfss	3,2
  5549  0B46  2B48               	goto	u1851
  5550  0B47  2B49               	goto	u1850
  5551  0B48                     u1851:
  5552  0B48  2B38               	goto	l1766
  5553  0B49                     u1850:
  5554  0B49                     l1774:
  5555  0B49  0872               	movf	___bmul@product,w
  5556  0B4A                     l265:
  5557  0B4A  0008               	return
  5558  0B4B                     __end_of___bmul:
  5559                           
  5560                           	psect	text20
  5561  0CC7                     __ptext20:	
  5562 ;; *************** function ___awdiv *****************
  5563 ;; Defined at:
  5564 ;;		line 5 in file "C:\Program Files\Microchip\xc8\v2.31\pic\sources\c90\common\awdiv.c"
  5565 ;; Parameters:    Size  Location     Type
  5566 ;;  divisor         2    0[COMMON] int 
  5567 ;;  dividend        2    2[COMMON] int 
  5568 ;; Auto vars:     Size  Location     Type
  5569 ;;  quotient        2    7[COMMON] int 
  5570 ;;  sign            1    6[COMMON] unsigned char 
  5571 ;;  counter         1    5[COMMON] unsigned char 
  5572 ;; Return value:  Size  Location     Type
  5573 ;;                  2    0[COMMON] int 
  5574 ;; Registers used:
  5575 ;;		wreg, status,2, status,0
  5576 ;; Tracked objects:
  5577 ;;		On entry : 0/0
  5578 ;;		On exit  : 0/0
  5579 ;;		Unchanged: 0/0
  5580 ;; Data sizes:     COMMON   BANK0   BANK1   BANK3   BANK2
  5581 ;;      Params:         4       0       0       0       0
  5582 ;;      Locals:         4       0       0       0       0
  5583 ;;      Temps:          1       0       0       0       0
  5584 ;;      Totals:         9       0       0       0       0
  5585 ;;Total ram usage:        9 bytes
  5586 ;; Hardware stack levels used:    1
  5587 ;; This function calls:
  5588 ;;		Nothing
  5589 ;; This function is called by:
  5590 ;;		_division
  5591 ;; This function uses a non-reentrant model
  5592 ;;
  5593                           
  5594                           
  5595                           ;psect for function ___awdiv
  5596  0CC7                     ___awdiv:
  5597  0CC7                     l1778:	
  5598                           ;incstack = 0
  5599                           ; Regs used in ___awdiv: [wreg+status,2+status,0]
  5600                           
  5601  0CC7  01F6               	clrf	___awdiv@sign
  5602  0CC8                     l1780:
  5603  0CC8  1FF1               	btfss	___awdiv@divisor+1,7
  5604  0CC9  2CCB               	goto	u1861
  5605  0CCA  2CCC               	goto	u1860
  5606  0CCB                     u1861:
  5607  0CCB  2CD3               	goto	l1786
  5608  0CCC                     u1860:
  5609  0CCC                     l1782:
  5610  0CCC  09F0               	comf	___awdiv@divisor,f
  5611  0CCD  09F1               	comf	___awdiv@divisor+1,f
  5612  0CCE  0AF0               	incf	___awdiv@divisor,f
  5613  0CCF  1903               	skipnz
  5614  0CD0  0AF1               	incf	___awdiv@divisor+1,f
  5615  0CD1                     l1784:
  5616  0CD1  01F6               	clrf	___awdiv@sign
  5617  0CD2  0AF6               	incf	___awdiv@sign,f
  5618  0CD3                     l1786:
  5619  0CD3  1FF3               	btfss	___awdiv@dividend+1,7
  5620  0CD4  2CD6               	goto	u1871
  5621  0CD5  2CD7               	goto	u1870
  5622  0CD6                     u1871:
  5623  0CD6  2CE0               	goto	l1792
  5624  0CD7                     u1870:
  5625  0CD7                     l1788:
  5626  0CD7  09F2               	comf	___awdiv@dividend,f
  5627  0CD8  09F3               	comf	___awdiv@dividend+1,f
  5628  0CD9  0AF2               	incf	___awdiv@dividend,f
  5629  0CDA  1903               	skipnz
  5630  0CDB  0AF3               	incf	___awdiv@dividend+1,f
  5631  0CDC                     l1790:
  5632  0CDC  3001               	movlw	1
  5633  0CDD  00F4               	movwf	??___awdiv
  5634  0CDE  0874               	movf	??___awdiv,w
  5635  0CDF  06F6               	xorwf	___awdiv@sign,f
  5636  0CE0                     l1792:
  5637  0CE0  01F7               	clrf	___awdiv@quotient
  5638  0CE1  01F8               	clrf	___awdiv@quotient+1
  5639  0CE2                     l1794:
  5640  0CE2  0870               	movf	___awdiv@divisor,w
  5641  0CE3  0471               	iorwf	___awdiv@divisor+1,w
  5642  0CE4  1903               	btfsc	3,2
  5643  0CE5  2CE7               	goto	u1881
  5644  0CE6  2CE8               	goto	u1880
  5645  0CE7                     u1881:
  5646  0CE7  2D1F               	goto	l1814
  5647  0CE8                     u1880:
  5648  0CE8                     l1796:
  5649  0CE8  01F5               	clrf	___awdiv@counter
  5650  0CE9  0AF5               	incf	___awdiv@counter,f
  5651  0CEA  2CF6               	goto	l1802
  5652  0CEB                     l1798:
  5653  0CEB  3001               	movlw	1
  5654  0CEC                     u1895:
  5655  0CEC  1003               	clrc
  5656  0CED  0DF0               	rlf	___awdiv@divisor,f
  5657  0CEE  0DF1               	rlf	___awdiv@divisor+1,f
  5658  0CEF  3EFF               	addlw	-1
  5659  0CF0  1D03               	skipz
  5660  0CF1  2CEC               	goto	u1895
  5661  0CF2                     l1800:
  5662  0CF2  3001               	movlw	1
  5663  0CF3  00F4               	movwf	??___awdiv
  5664  0CF4  0874               	movf	??___awdiv,w
  5665  0CF5  07F5               	addwf	___awdiv@counter,f
  5666  0CF6                     l1802:
  5667  0CF6  1FF1               	btfss	___awdiv@divisor+1,7
  5668  0CF7  2CF9               	goto	u1901
  5669  0CF8  2CFA               	goto	u1900
  5670  0CF9                     u1901:
  5671  0CF9  2CEB               	goto	l1798
  5672  0CFA                     u1900:
  5673  0CFA                     l1804:
  5674  0CFA  3001               	movlw	1
  5675  0CFB                     u1915:
  5676  0CFB  1003               	clrc
  5677  0CFC  0DF7               	rlf	___awdiv@quotient,f
  5678  0CFD  0DF8               	rlf	___awdiv@quotient+1,f
  5679  0CFE  3EFF               	addlw	-1
  5680  0CFF  1D03               	skipz
  5681  0D00  2CFB               	goto	u1915
  5682  0D01  0871               	movf	___awdiv@divisor+1,w
  5683  0D02  0273               	subwf	___awdiv@dividend+1,w
  5684  0D03  1D03               	skipz
  5685  0D04  2D07               	goto	u1925
  5686  0D05  0870               	movf	___awdiv@divisor,w
  5687  0D06  0272               	subwf	___awdiv@dividend,w
  5688  0D07                     u1925:
  5689  0D07  1C03               	skipc
  5690  0D08  2D0A               	goto	u1921
  5691  0D09  2D0B               	goto	u1920
  5692  0D0A                     u1921:
  5693  0D0A  2D12               	goto	l1810
  5694  0D0B                     u1920:
  5695  0D0B                     l1806:
  5696  0D0B  0870               	movf	___awdiv@divisor,w
  5697  0D0C  02F2               	subwf	___awdiv@dividend,f
  5698  0D0D  0871               	movf	___awdiv@divisor+1,w
  5699  0D0E  1C03               	skipc
  5700  0D0F  03F3               	decf	___awdiv@dividend+1,f
  5701  0D10  02F3               	subwf	___awdiv@dividend+1,f
  5702  0D11                     l1808:
  5703  0D11  1477               	bsf	___awdiv@quotient,0
  5704  0D12                     l1810:
  5705  0D12  3001               	movlw	1
  5706  0D13                     u1935:
  5707  0D13  1003               	clrc
  5708  0D14  0CF1               	rrf	___awdiv@divisor+1,f
  5709  0D15  0CF0               	rrf	___awdiv@divisor,f
  5710  0D16  3EFF               	addlw	-1
  5711  0D17  1D03               	skipz
  5712  0D18  2D13               	goto	u1935
  5713  0D19                     l1812:
  5714  0D19  3001               	movlw	1
  5715  0D1A  02F5               	subwf	___awdiv@counter,f
  5716  0D1B  1D03               	btfss	3,2
  5717  0D1C  2D1E               	goto	u1941
  5718  0D1D  2D1F               	goto	u1940
  5719  0D1E                     u1941:
  5720  0D1E  2CFA               	goto	l1804
  5721  0D1F                     u1940:
  5722  0D1F                     l1814:
  5723  0D1F  0876               	movf	___awdiv@sign,w
  5724  0D20  1903               	btfsc	3,2
  5725  0D21  2D23               	goto	u1951
  5726  0D22  2D24               	goto	u1950
  5727  0D23                     u1951:
  5728  0D23  2D29               	goto	l1818
  5729  0D24                     u1950:
  5730  0D24                     l1816:
  5731  0D24  09F7               	comf	___awdiv@quotient,f
  5732  0D25  09F8               	comf	___awdiv@quotient+1,f
  5733  0D26  0AF7               	incf	___awdiv@quotient,f
  5734  0D27  1903               	skipnz
  5735  0D28  0AF8               	incf	___awdiv@quotient+1,f
  5736  0D29                     l1818:
  5737  0D29  0878               	movf	___awdiv@quotient+1,w
  5738  0D2A  00F1               	movwf	?___awdiv+1
  5739  0D2B  0877               	movf	___awdiv@quotient,w
  5740  0D2C  00F0               	movwf	?___awdiv
  5741  0D2D                     l392:
  5742  0D2D  0008               	return
  5743  0D2E                     __end_of___awdiv:
  5744                           
  5745                           	psect	text21
  5746  0D2E                     __ptext21:	
  5747 ;; *************** function _atoi *****************
  5748 ;; Defined at:
  5749 ;;		line 5 in file "C:\Program Files\Microchip\xc8\v2.31\pic\sources\c90\common\atoi.c"
  5750 ;; Parameters:    Size  Location     Type
  5751 ;;  s               1    wreg     PTR const unsigned char 
  5752 ;;		 -> v1(20), 
  5753 ;; Auto vars:     Size  Location     Type
  5754 ;;  s               1   13[COMMON] PTR const unsigned char 
  5755 ;;		 -> v1(20), 
  5756 ;;  a               2   11[COMMON] int 
  5757 ;;  sign            1   10[COMMON] unsigned char 
  5758 ;; Return value:  Size  Location     Type
  5759 ;;                  2    6[COMMON] int 
  5760 ;; Registers used:
  5761 ;;		wreg, fsr0l, fsr0h, status,2, status,0, pclath, cstack
  5762 ;; Tracked objects:
  5763 ;;		On entry : 0/0
  5764 ;;		On exit  : 0/0
  5765 ;;		Unchanged: 0/0
  5766 ;; Data sizes:     COMMON   BANK0   BANK1   BANK3   BANK2
  5767 ;;      Params:         2       0       0       0       0
  5768 ;;      Locals:         4       0       0       0       0
  5769 ;;      Temps:          2       0       0       0       0
  5770 ;;      Totals:         8       0       0       0       0
  5771 ;;Total ram usage:        8 bytes
  5772 ;; Hardware stack levels used:    1
  5773 ;; Hardware stack levels required when called:    1
  5774 ;; This function calls:
  5775 ;;		___wmul
  5776 ;;		_isdigit
  5777 ;; This function is called by:
  5778 ;;		_main
  5779 ;; This function uses a non-reentrant model
  5780 ;;
  5781                           
  5782                           
  5783                           ;psect for function _atoi
  5784  0D2E                     _atoi:
  5785                           
  5786                           ;incstack = 0
  5787                           ; Regs used in _atoi: [wreg-fsr0h+status,2+status,0+pclath+cstack]
  5788                           ;atoi@s stored from wreg
  5789  0D2E  00FD               	movwf	atoi@s
  5790  0D2F                     l2360:
  5791  0D2F  2D34               	goto	l2364
  5792  0D30                     l2362:
  5793  0D30  3001               	movlw	1
  5794  0D31  00F8               	movwf	??_atoi
  5795  0D32  0878               	movf	??_atoi,w
  5796  0D33  07FD               	addwf	atoi@s,f
  5797  0D34                     l2364:
  5798  0D34  087D               	movf	atoi@s,w
  5799  0D35  0084               	movwf	4
  5800  0D36  3020               	movlw	32
  5801  0D37  1383               	bcf	3,7	;select IRP bank0
  5802  0D38  0600               	xorwf	0,w
  5803  0D39  1903               	btfsc	3,2
  5804  0D3A  2D3C               	goto	u3001
  5805  0D3B  2D3D               	goto	u3000
  5806  0D3C                     u3001:
  5807  0D3C  2D30               	goto	l2362
  5808  0D3D                     u3000:
  5809  0D3D                     l2366:
  5810  0D3D  087D               	movf	atoi@s,w
  5811  0D3E  0084               	movwf	4
  5812  0D3F  3009               	movlw	9
  5813  0D40  0600               	xorwf	0,w
  5814  0D41  1903               	btfsc	3,2
  5815  0D42  2D44               	goto	u3011
  5816  0D43  2D45               	goto	u3010
  5817  0D44                     u3011:
  5818  0D44  2D30               	goto	l2362
  5819  0D45                     u3010:
  5820  0D45                     l2368:
  5821  0D45  01FB               	clrf	atoi@a
  5822  0D46  01FC               	clrf	atoi@a+1
  5823  0D47  01FA               	clrf	atoi@sign
  5824  0D48                     l2370:
  5825  0D48  087D               	movf	atoi@s,w
  5826  0D49  0084               	movwf	4
  5827  0D4A  302D               	movlw	45
  5828  0D4B  0600               	xorwf	0,w
  5829  0D4C  1D03               	btfss	3,2
  5830  0D4D  2D4F               	goto	u3021
  5831  0D4E  2D50               	goto	u3020
  5832  0D4F                     u3021:
  5833  0D4F  2D59               	goto	l2374
  5834  0D50                     u3020:
  5835  0D50                     l2372:
  5836  0D50  3001               	movlw	1
  5837  0D51  00F8               	movwf	??_atoi
  5838  0D52  0878               	movf	??_atoi,w
  5839  0D53  07FA               	addwf	atoi@sign,f
  5840  0D54  3001               	movlw	1
  5841  0D55  00F8               	movwf	??_atoi
  5842  0D56  0878               	movf	??_atoi,w
  5843  0D57  07FD               	addwf	atoi@s,f
  5844  0D58  2D87               	goto	l2382
  5845  0D59                     l2374:
  5846  0D59  087D               	movf	atoi@s,w
  5847  0D5A  0084               	movwf	4
  5848  0D5B  302B               	movlw	43
  5849  0D5C  0600               	xorwf	0,w
  5850  0D5D  1D03               	btfss	3,2
  5851  0D5E  2D60               	goto	u3031
  5852  0D5F  2D61               	goto	u3030
  5853  0D60                     u3031:
  5854  0D60  2D87               	goto	l2382
  5855  0D61                     u3030:
  5856  0D61                     l2376:
  5857  0D61  3001               	movlw	1
  5858  0D62  00F8               	movwf	??_atoi
  5859  0D63  0878               	movf	??_atoi,w
  5860  0D64  07FD               	addwf	atoi@s,f
  5861  0D65  2D87               	goto	l2382
  5862  0D66                     l2378:
  5863  0D66  087D               	movf	atoi@s,w
  5864  0D67  0084               	movwf	4
  5865  0D68  087C               	movf	atoi@a+1,w
  5866  0D69  00F1               	movwf	___wmul@multiplier+1
  5867  0D6A  087B               	movf	atoi@a,w
  5868  0D6B  00F0               	movwf	___wmul@multiplier
  5869  0D6C  300A               	movlw	10
  5870  0D6D  00F2               	movwf	___wmul@multiplicand
  5871  0D6E  3000               	movlw	0
  5872  0D6F  00F3               	movwf	___wmul@multiplicand+1
  5873  0D70  120A  158A  239D  120A  158A  	fcall	___wmul
  5874  0D75  1383               	bcf	3,7	;select IRP bank0
  5875  0D76  0800               	movf	0,w
  5876  0D77  0770               	addwf	?___wmul,w
  5877  0D78  00F8               	movwf	??_atoi
  5878  0D79  3000               	movlw	0
  5879  0D7A  1803               	skipnc
  5880  0D7B  3001               	movlw	1
  5881  0D7C  0771               	addwf	?___wmul+1,w
  5882  0D7D  00F9               	movwf	??_atoi+1
  5883  0D7E  0878               	movf	??_atoi,w
  5884  0D7F  3ED0               	addlw	208
  5885  0D80  00FB               	movwf	atoi@a
  5886  0D81  0879               	movf	??_atoi+1,w
  5887  0D82  1803               	skipnc
  5888  0D83  3E01               	addlw	1
  5889  0D84  3EFF               	addlw	255
  5890  0D85  00FC               	movwf	atoi@a+1
  5891  0D86  2D61               	goto	l2376
  5892  0D87                     l2382:
  5893  0D87  087D               	movf	atoi@s,w
  5894  0D88  0084               	movwf	4
  5895  0D89  0800               	movf	0,w
  5896  0D8A  120A  158A  2324  120A  158A  	fcall	_isdigit
  5897  0D8F  1803               	btfsc	3,0
  5898  0D90  2D92               	goto	u3041
  5899  0D91  2D93               	goto	u3040
  5900  0D92                     u3041:
  5901  0D92  2D66               	goto	l2378
  5902  0D93                     u3040:
  5903  0D93                     l2384:
  5904  0D93  087A               	movf	atoi@sign,w
  5905  0D94  1903               	btfsc	3,2
  5906  0D95  2D97               	goto	u3051
  5907  0D96  2D98               	goto	u3050
  5908  0D97                     u3051:
  5909  0D97  2DA4               	goto	l2390
  5910  0D98                     u3050:
  5911  0D98                     l2386:
  5912  0D98  097B               	comf	atoi@a,w
  5913  0D99  00F8               	movwf	??_atoi
  5914  0D9A  097C               	comf	atoi@a+1,w
  5915  0D9B  00F9               	movwf	??_atoi+1
  5916  0D9C  0AF8               	incf	??_atoi,f
  5917  0D9D  1903               	skipnz
  5918  0D9E  0AF9               	incf	??_atoi+1,f
  5919  0D9F  0878               	movf	??_atoi,w
  5920  0DA0  00F6               	movwf	?_atoi
  5921  0DA1  0879               	movf	??_atoi+1,w
  5922  0DA2  00F7               	movwf	?_atoi+1
  5923  0DA3  2DA8               	goto	l702
  5924  0DA4                     l2390:
  5925  0DA4  087C               	movf	atoi@a+1,w
  5926  0DA5  00F7               	movwf	?_atoi+1
  5927  0DA6  087B               	movf	atoi@a,w
  5928  0DA7  00F6               	movwf	?_atoi
  5929  0DA8                     l702:
  5930  0DA8  0008               	return
  5931  0DA9                     __end_of_atoi:
  5932                           
  5933                           	psect	text22
  5934  0B24                     __ptext22:	
  5935 ;; *************** function _isdigit *****************
  5936 ;; Defined at:
  5937 ;;		line 8 in file "C:\Program Files\Microchip\xc8\v2.31\pic\sources\c90\common\isdigit.c"
  5938 ;; Parameters:    Size  Location     Type
  5939 ;;  c               1    wreg     unsigned char 
  5940 ;; Auto vars:     Size  Location     Type
  5941 ;;  c               1    1[COMMON] unsigned char 
  5942 ;; Return value:  Size  Location     Type
  5943 ;;		None               void
  5944 ;; Registers used:
  5945 ;;		wreg, status,2, status,0
  5946 ;; Tracked objects:
  5947 ;;		On entry : 0/0
  5948 ;;		On exit  : 0/0
  5949 ;;		Unchanged: 0/0
  5950 ;; Data sizes:     COMMON   BANK0   BANK1   BANK3   BANK2
  5951 ;;      Params:         0       0       0       0       0
  5952 ;;      Locals:         2       0       0       0       0
  5953 ;;      Temps:          0       0       0       0       0
  5954 ;;      Totals:         2       0       0       0       0
  5955 ;;Total ram usage:        2 bytes
  5956 ;; Hardware stack levels used:    1
  5957 ;; This function calls:
  5958 ;;		Nothing
  5959 ;; This function is called by:
  5960 ;;		_atoi
  5961 ;; This function uses a non-reentrant model
  5962 ;;
  5963                           
  5964                           
  5965                           ;psect for function _isdigit
  5966  0B24                     _isdigit:
  5967                           
  5968                           ;incstack = 0
  5969                           ; Regs used in _isdigit: [wreg+status,2+status,0]
  5970                           ;isdigit@c stored from wreg
  5971  0B24  00F1               	movwf	isdigit@c
  5972  0B25                     l2184:
  5973  0B25  01F0               	clrf	_isdigit$904
  5974  0B26                     l2186:
  5975  0B26  303A               	movlw	58
  5976  0B27  0271               	subwf	isdigit@c,w
  5977  0B28  1803               	skipnc
  5978  0B29  2B2B               	goto	u2861
  5979  0B2A  2B2C               	goto	u2860
  5980  0B2B                     u2861:
  5981  0B2B  2B34               	goto	l2192
  5982  0B2C                     u2860:
  5983  0B2C                     l2188:
  5984  0B2C  3030               	movlw	48
  5985  0B2D  0271               	subwf	isdigit@c,w
  5986  0B2E  1C03               	skipc
  5987  0B2F  2B31               	goto	u2871
  5988  0B30  2B32               	goto	u2870
  5989  0B31                     u2871:
  5990  0B31  2B34               	goto	l2192
  5991  0B32                     u2870:
  5992  0B32                     l2190:
  5993  0B32  01F0               	clrf	_isdigit$904
  5994  0B33  0AF0               	incf	_isdigit$904,f
  5995  0B34                     l2192:
  5996  0B34  0C70               	rrf	_isdigit$904,w
  5997  0B35                     l707:
  5998  0B35  0008               	return
  5999  0B36                     __end_of_isdigit:
  6000                           
  6001                           	psect	text23
  6002  0B9D                     __ptext23:	
  6003 ;; *************** function ___wmul *****************
  6004 ;; Defined at:
  6005 ;;		line 15 in file "C:\Program Files\Microchip\xc8\v2.31\pic\sources\c90\common\Umul16.c"
  6006 ;; Parameters:    Size  Location     Type
  6007 ;;  multiplier      2    0[COMMON] unsigned int 
  6008 ;;  multiplicand    2    2[COMMON] unsigned int 
  6009 ;; Auto vars:     Size  Location     Type
  6010 ;;  product         2    4[COMMON] unsigned int 
  6011 ;; Return value:  Size  Location     Type
  6012 ;;                  2    0[COMMON] unsigned int 
  6013 ;; Registers used:
  6014 ;;		wreg, status,2, status,0
  6015 ;; Tracked objects:
  6016 ;;		On entry : 0/0
  6017 ;;		On exit  : 0/0
  6018 ;;		Unchanged: 0/0
  6019 ;; Data sizes:     COMMON   BANK0   BANK1   BANK3   BANK2
  6020 ;;      Params:         4       0       0       0       0
  6021 ;;      Locals:         2       0       0       0       0
  6022 ;;      Temps:          0       0       0       0       0
  6023 ;;      Totals:         6       0       0       0       0
  6024 ;;Total ram usage:        6 bytes
  6025 ;; Hardware stack levels used:    1
  6026 ;; This function calls:
  6027 ;;		Nothing
  6028 ;; This function is called by:
  6029 ;;		_atoi
  6030 ;; This function uses a non-reentrant model
  6031 ;;
  6032                           
  6033                           
  6034                           ;psect for function ___wmul
  6035  0B9D                     ___wmul:
  6036  0B9D                     l1750:	
  6037                           ;incstack = 0
  6038                           ; Regs used in ___wmul: [wreg+status,2+status,0]
  6039                           
  6040  0B9D  01F4               	clrf	___wmul@product
  6041  0B9E  01F5               	clrf	___wmul@product+1
  6042  0B9F                     l1752:
  6043  0B9F  1C70               	btfss	___wmul@multiplier,0
  6044  0BA0  2BA2               	goto	u1801
  6045  0BA1  2BA3               	goto	u1800
  6046  0BA2                     u1801:
  6047  0BA2  2BA9               	goto	l239
  6048  0BA3                     u1800:
  6049  0BA3                     l1754:
  6050  0BA3  0872               	movf	___wmul@multiplicand,w
  6051  0BA4  07F4               	addwf	___wmul@product,f
  6052  0BA5  1803               	skipnc
  6053  0BA6  0AF5               	incf	___wmul@product+1,f
  6054  0BA7  0873               	movf	___wmul@multiplicand+1,w
  6055  0BA8  07F5               	addwf	___wmul@product+1,f
  6056  0BA9                     l239:
  6057  0BA9  3001               	movlw	1
  6058  0BAA                     u1815:
  6059  0BAA  1003               	clrc
  6060  0BAB  0DF2               	rlf	___wmul@multiplicand,f
  6061  0BAC  0DF3               	rlf	___wmul@multiplicand+1,f
  6062  0BAD  3EFF               	addlw	-1
  6063  0BAE  1D03               	skipz
  6064  0BAF  2BAA               	goto	u1815
  6065  0BB0                     l1756:
  6066  0BB0  3001               	movlw	1
  6067  0BB1                     u1825:
  6068  0BB1  1003               	clrc
  6069  0BB2  0CF1               	rrf	___wmul@multiplier+1,f
  6070  0BB3  0CF0               	rrf	___wmul@multiplier,f
  6071  0BB4  3EFF               	addlw	-1
  6072  0BB5  1D03               	skipz
  6073  0BB6  2BB1               	goto	u1825
  6074  0BB7                     l1758:
  6075  0BB7  0870               	movf	___wmul@multiplier,w
  6076  0BB8  0471               	iorwf	___wmul@multiplier+1,w
  6077  0BB9  1D03               	btfss	3,2
  6078  0BBA  2BBC               	goto	u1831
  6079  0BBB  2BBD               	goto	u1830
  6080  0BBC                     u1831:
  6081  0BBC  2B9F               	goto	l1752
  6082  0BBD                     u1830:
  6083  0BBD                     l1760:
  6084  0BBD  0875               	movf	___wmul@product+1,w
  6085  0BBE  00F1               	movwf	?___wmul+1
  6086  0BBF  0874               	movf	___wmul@product,w
  6087  0BC0  00F0               	movwf	?___wmul
  6088  0BC1                     l241:
  6089  0BC1  0008               	return
  6090  0BC2                     __end_of___wmul:
  6091  0002                     
  6092                           	psect	functab
  6093  0003                     __pfunctab:
  6094  0003                     __fptable:
  6095  0003                     fptable:
  6096  0003  00FF               	movwf	(btemp+1)& (0+127)
  6097  0004  3000               	movlw	high fptable
  6098  0005  008A               	movwf	10
  6099  0006  087F               	movf	(btemp+1)& (0+127),w
  6100  0007  0782               	addwf	2,f
  6101  0008                     fpbase:
  6102  0008  2808               	goto	fpbase	; Call via a null pointer and you will get stuck here.
  6103  0009                     fp__putch:
  6104  0009  120A  158A  2B12   	ljmp	_putch
  6105  000C                     __end_of__fptable:
  6106  007E                     btemp	set	126	;btemp
  6107  007E                     wtemp0	set	126
  6108                           
  6109                           	psect	config
  6110                           
  6111                           ;Config register CONFIG1 @ 0x2007
  6112                           ;	Oscillator Selection bits
  6113                           ;	FOSC = INTRC_NOCLKOUT, INTOSCIO oscillator: I/O function on RA6/OSC2/CLKOUT pin, I/O f
      +                          unction on RA7/OSC1/CLKIN
  6114                           ;	Watchdog Timer Enable bit
  6115                           ;	WDTE = OFF, WDT disabled and can be enabled by SWDTEN bit of the WDTCON register
  6116                           ;	Power-up Timer Enable bit
  6117                           ;	PWRTE = OFF, PWRT disabled
  6118                           ;	RE3/MCLR pin function select bit
  6119                           ;	MCLRE = OFF, RE3/MCLR pin function is digital input, MCLR internally tied to VDD
  6120                           ;	Code Protection bit
  6121                           ;	CP = OFF, Program memory code protection is disabled
  6122                           ;	Data Code Protection bit
  6123                           ;	CPD = OFF, Data memory code protection is disabled
  6124                           ;	Brown Out Reset Selection bits
  6125                           ;	BOREN = OFF, BOR disabled
  6126                           ;	Internal External Switchover bit
  6127                           ;	IESO = OFF, Internal/External Switchover mode is disabled
  6128                           ;	Fail-Safe Clock Monitor Enabled bit
  6129                           ;	FCMEN = OFF, Fail-Safe Clock Monitor is disabled
  6130                           ;	Low Voltage Programming Enable bit
  6131                           ;	LVP = OFF, RB3 pin has digital I/O, HV on MCLR must be used for programming
  6132                           ;	In-Circuit Debugger Mode bit
  6133                           ;	DEBUG = 0x1, unprogrammed default
  6134  2007                     	org	8199
  6135  2007  20D4               	dw	8404
  6136                           
  6137                           ;Config register CONFIG2 @ 0x2008
  6138                           ;	Brown-out Reset Selection bit
  6139                           ;	BOR4V = BOR40V, Brown-out Reset set to 4.0V
  6140                           ;	Flash Program Memory Self Write Enable bits
  6141                           ;	WRT = OFF, Write protection off
  6142  2008                     	org	8200
  6143  2008  3FFF               	dw	16383

Data Sizes:
    Strings     37
    Constant    10
    Data        0
    BSS         68
    Persistent  0
    Stack       0

Auto Spaces:
    Space          Size  Autos    Used
    COMMON           14     14      14
    BANK0            80     75      80
    BANK1            80      0      63
    BANK3            96      0       0
    BANK2            96      0       0

Pointer List with Targets:

    strcat@from	PTR const unsigned char  size(1) Largest target is 20
		 -> v3(BANK1[20]), v2(BANK1[20]), 

    strcat@to	PTR unsigned char  size(1) Largest target is 20
		 -> v1(BANK1[20]), 

    strcat@cp	PTR unsigned char  size(1) Largest target is 20
		 -> v1(BANK1[20]), 

    sprintf@f	PTR const unsigned char  size(1) Largest target is 3
		 -> STR_5(CODE[3]), STR_4(CODE[3]), STR_3(CODE[3]), 

    sprintf@ap	PTR void [1] size(1) Largest target is 2
		 -> ?_sprintf(BANK0[2]), ?_printf(COMMON[2]), 

    sprintf@wh	PTR unsigned char  size(1) Largest target is 20
		 -> v3(BANK1[20]), v2(BANK1[20]), v1(BANK1[20]), 

    pb.func	PTR FTN(unsigned char ,)void  size(1) Largest target is 1
		 -> Absolute function(), putch(), 

    pb.ptr	PTR unsigned char  size(1) Largest target is 20
		 -> NULL(NULL[0]), v3(BANK1[20]), v2(BANK1[20]), v1(BANK1[20]), 

    _doprnt@ap	PTR PTR void  size(1) Largest target is 1
		 -> sprintf@ap(BANK0[1]), printf@ap(BANK0[1]), 

    _doprnt@f	PTR const unsigned char  size(1) Largest target is 17
		 -> STR_5(CODE[3]), STR_4(CODE[3]), STR_3(CODE[3]), STR_2(CODE[17]), 
		 -> STR_1(CODE[17]), 

    _doprnt@pb.func	PTR FTN(unsigned char ,)void  size(1) Largest target is 1
		 -> Absolute function(), putch(), 

    _doprnt@pb.ptr	PTR unsigned char  size(1) Largest target is 20
		 -> NULL(NULL[0]), v3(BANK1[20]), v2(BANK1[20]), v1(BANK1[20]), 

    _doprnt@pb	PTR struct __prbuf size(1) Largest target is 3
		 -> sprintf@pb(BANK0[2]), printf@pb(BANK0[2]), 

    printf@f	PTR const unsigned char  size(1) Largest target is 17
		 -> STR_2(CODE[17]), STR_1(CODE[17]), 

    printf@ap	PTR void [1] size(1) Largest target is 2
		 -> ?_sprintf(BANK0[2]), ?_printf(COMMON[2]), 

    S906__prbuf$func	PTR FTN(unsigned char ,)void  size(1) Largest target is 1
		 -> Absolute function(), putch(), 

    pb.func	PTR FTN(unsigned char ,)void  size(1) Largest target is 1
		 -> Absolute function(), putch(), 

    S906__prbuf$ptr	PTR unsigned char  size(1) Largest target is 20
		 -> NULL(NULL[0]), v3(BANK1[20]), v2(BANK1[20]), v1(BANK1[20]), 

    pb.ptr	PTR unsigned char  size(1) Largest target is 20
		 -> NULL(NULL[0]), v3(BANK1[20]), v2(BANK1[20]), v1(BANK1[20]), 

    atoi@s	PTR const unsigned char  size(1) Largest target is 20
		 -> v1(BANK1[20]), 

    sp__strcat	PTR unsigned char  size(1) Largest target is 20
		 -> v1(BANK1[20]), 


Critical Paths under _main in COMMON

    _main->_atoi
    _setup->_spiInit
    __doprnt->___lwmod
    ___lwmod->___lwdiv
    _division->___xxtofl
    ___fltol->___xxtofl
    ___flmul->___xxtofl
    ___fldiv->___xxtofl
    _atoi->___wmul

Critical Paths under _main in BANK0

    _main->_division
    _sprintf->__doprnt
    _printf->__doprnt
    _division->___fltol
    ___fltol->___fldiv
    ___fldiv->___flmul

Critical Paths under _main in BANK1

    None.

Critical Paths under _main in BANK3

    None.

Critical Paths under _main in BANK2

    None.

Call Graph Tables:

 ---------------------------------------------------------------------------------
 (Depth) Function   	        Calls       Base Space   Used Autos Params    Refs
 ---------------------------------------------------------------------------------
 (0) _main                                                 5     5      0   10921
                                             70 BANK0      5     5      0
                               _atoi
                           _division
                             _printf
                              _setup
                            _spiRead
                           _spiWrite
                            _sprintf
                             _strcat
 ---------------------------------------------------------------------------------
 (1) _strcat                                               4     3      1     316
                                              0 COMMON     4     3      1
 ---------------------------------------------------------------------------------
 (1) _sprintf                                              9     6      3    2360
                                             11 BANK0      9     6      3
                            __doprnt
 ---------------------------------------------------------------------------------
 (1) _spiWrite                                             1     1      0      22
                                              0 COMMON     1     1      0
 ---------------------------------------------------------------------------------
 (1) _spiRead                                              0     0      0       0
                     _spiReceiveWait
 ---------------------------------------------------------------------------------
 (2) _spiReceiveWait                                       0     0      0       0
 ---------------------------------------------------------------------------------
 (1) _setup                                                0     0      0     360
                            _spiInit
 ---------------------------------------------------------------------------------
 (2) _spiInit                                              4     1      3     360
                                              0 COMMON     4     1      3
 ---------------------------------------------------------------------------------
 (1) _printf                                               6     6      0    2043
                                             11 BANK0      6     6      0
                            __doprnt
 ---------------------------------------------------------------------------------
 (2) __doprnt                                             19    17      2    1868
                                              0 BANK0     11     9      2
                   Absolute function *
                            ___lwdiv
                            ___lwmod
                              _putch *
 ---------------------------------------------------------------------------------
 (3) _putch                                                1     0      1     181
                                              0 COMMON     1     0      1
 ---------------------------------------------------------------------------------
 (3) ___lwmod                                              6     2      4     311
                                              8 COMMON     6     2      4
                            ___lwdiv (ARG)
 ---------------------------------------------------------------------------------
 (3) ___lwdiv                                              8     4      4     314
                                              0 COMMON     8     4      4
 ---------------------------------------------------------------------------------
 (3) Absolute function(Fake)                               1     0      1       0
 ---------------------------------------------------------------------------------
 (1) _division                                             7     7      0    5224
                                             63 BANK0      7     7      0
                            ___awdiv
                             ___bmul
                            ___fldiv
                            ___flmul
                            ___fltol
                           ___xxtofl
 ---------------------------------------------------------------------------------
 (2) ___xxtofl                                            14    10      4     398
                                              0 COMMON    14    10      4
 ---------------------------------------------------------------------------------
 (2) ___fltol                                             11     7      4     305
                                             52 BANK0     11     7      4
                            ___fldiv (ARG)
                            ___flmul (ARG)
                           ___xxtofl (ARG)
 ---------------------------------------------------------------------------------
 (2) ___flmul                                             26    18      8    2417
                                              0 BANK0     26    18      8
                          __Umul8_16
                           ___xxtofl (ARG)
 ---------------------------------------------------------------------------------
 (3) __Umul8_16                                            9     7      2     799
                                              0 COMMON     9     7      2
 ---------------------------------------------------------------------------------
 (2) ___fldiv                                             26    18      8    1273
                                             26 BANK0     26    18      8
                            ___flmul (ARG)
                           ___xxtofl (ARG)
 ---------------------------------------------------------------------------------
 (2) ___bmul                                               4     3      1     244
                                              0 COMMON     4     3      1
 ---------------------------------------------------------------------------------
 (2) ___awdiv                                              9     5      4     452
                                              0 COMMON     9     5      4
 ---------------------------------------------------------------------------------
 (1) _atoi                                                 8     6      2     573
                                              6 COMMON     8     6      2
                             ___wmul
                            _isdigit
 ---------------------------------------------------------------------------------
 (2) _isdigit                                              2     2      0      68
                                              0 COMMON     2     2      0
 ---------------------------------------------------------------------------------
 (2) ___wmul                                               6     2      4     244
                                              0 COMMON     6     2      4
 ---------------------------------------------------------------------------------
 Estimated maximum stack depth 3
 ---------------------------------------------------------------------------------

 Call Graph Graphs:

 _main (ROOT)
   _atoi
     ___wmul
     _isdigit
   _division
     ___awdiv
     ___bmul
     ___fldiv
       ___flmul (ARG)
         __Umul8_16
         ___xxtofl (ARG)
       ___xxtofl (ARG)
     ___flmul
       __Umul8_16
       ___xxtofl (ARG)
     ___fltol
       ___fldiv (ARG)
         ___flmul (ARG)
           __Umul8_16
           ___xxtofl (ARG)
         ___xxtofl (ARG)
       ___flmul (ARG)
         __Umul8_16
         ___xxtofl (ARG)
       ___xxtofl (ARG)
     ___xxtofl
   _printf
     __doprnt
       Absolute function(Fake) *
       ___lwdiv *
       ___lwmod *
         ___lwdiv (ARG)
       _putch *
   _setup
     _spiInit
   _spiRead
     _spiReceiveWait
   _spiWrite
   _sprintf
     __doprnt
       Absolute function(Fake) *
       ___lwdiv *
       ___lwmod *
         ___lwdiv (ARG)
       _putch *
   _strcat

 Address spaces:
Name               Size   Autos  Total    Cost      Usage
BITCOMMON            E      0       0       0        0.0%
EEDATA             100      0       0       0        0.0%
NULL                 0      0       0       0        0.0%
CODE                 0      0       0       0        0.0%
COMMON               E      E       E       1      100.0%
BITSFR0              0      0       0       1        0.0%
SFR0                 0      0       0       1        0.0%
BITSFR1              0      0       0       2        0.0%
SFR1                 0      0       0       2        0.0%
STACK                0      0       0       2        0.0%
ABS                  0      0      9D       3        0.0%
BITBANK0            50      0       0       4        0.0%
BITSFR3              0      0       0       4        0.0%
SFR3                 0      0       0       4        0.0%
BANK0               50     4B      50       5      100.0%
BITSFR2              0      0       0       5        0.0%
SFR2                 0      0       0       5        0.0%
BITBANK1            50      0       0       6        0.0%
BANK1               50      0      3F       7       78.8%
BITBANK3            60      0       0       8        0.0%
BANK3               60      0       0       9        0.0%
BITBANK2            60      0       0      10        0.0%
BANK2               60      0       0      11        0.0%
DATA                 0      0      9D      12        0.0%


Microchip Technology PIC Macro Assembler V2.31 build 20201012212115 
Symbol Table                                                                                   Sun Aug 01 02:06:32 2021

           ___fldiv@aexp 0053             ___fldiv@bexp 0052                        pc 0002  
           ___fldiv@sign 004B           ___bmul@product 0072              _SSPSTATbits 0094  
                     l91 03A0                       l92 03B3                       l93 03C6  
                     l85 0317                       l94 03D9                       l86 032A  
                     l95 03EC                       l87 033D                       l96 03F7  
                     l88 0350                       l89 0363                       l99 0404  
           ___awdiv@sign 0076                       _v1 00CB                       _v2 00B7  
                     _v3 00A3                       fsr 0004      ___wmul@multiplicand 0072  
    __Umul8_16@word_mpld 0076                      l110 0C48                      l102 0410  
                    l113 0ECB                      l116 0B12                      l142 0B09  
                    l119 0B1A                      l135 0B5B                      l136 0B60  
                    l241 0BC1                      l153 0B23                      l145 0B02  
                    l139 0B03                      l239 0BA9                      l511 0CC6  
                    l432 0E0F                      l265 0B4A                      l425 0E24  
                    l521 0C82                      l610 0287                      l435 0E24  
                    l612 0297                      l604 0215                      l702 0DA8  
                    l392 0D2D                      l640 07DF                      l634 0757  
                    l707 0B35                      l628 07EB                      l716 0B7B  
                    l590 02A3                      l647 0BD6                      l672 002F  
                    l649 0BE8                      l761 0B9C                      l674 00C6  
                    l754 0FFF                      l770 0C11                      l588 0123  
                    l685 0090                      l686 009C                      l678 0074  
                    fsr0 0004                      indf 0000             ___flmul@aexp 0032  
           ___flmul@bexp 0033             ___flmul@sign 002D             ___flmul@temp 0038  
           ___flmul@prod 0034             ___fltol@exp1 005E                     l2000 048B  
                   l2010 04A2                     l2002 0492                     l2100 073C  
                   l2020 04BE                     l2012 04A7                     l2004 0498  
                   l2110 0761                     l2102 0740                     l2030 04D3  
                   l2022 04C4                     l2014 04AF                     l2006 049C  
                   l2120 079F                     l2112 076F                     l2104 0754  
                   l2040 04EF                     l2032 04DB                     l2024 04C8  
                   l2016 04B1                     l2008 049D                     l2200 0ED6  
                   l2130 07D3                     l2122 07AA                     l2114 0773  
                   l2050 0532                     l2034 04DD                     l2026 04C9  
                   l2018 04B9                     l2202 0EDE                     l2132 07D7  
                   l2124 07B9                     l2116 078C                     l2108 075C  
                   l2060 05BB                     l2052 054E                     l2044 04F8  
                   l2036 04E5                     l2028 04CE                     l2140 000E  
                   l2220 0F30                     l2212 0EFD                     l2204 0EED  
                   l2300 0C3F                     l2134 07D8                     l2126 07C3  
                   l2118 0792                     l2070 062E                     l2062 05CB  
                   l2054 057A                     l2046 0508                     l2038 04EA  
                   l2142 0013                     l2310 0E28                     l2222 0F35  
                   l2214 0F1A                     l2206 0EF5                     l2302 0AFE  
                   l2136 07E3                     l2128 07C5                     l2080 06DB  
                   l2072 064B                     l2064 05E8                     l2056 0596  
                   l2048 0515                     l2160 005D                     l2152 0040  
                   l2144 0017                     l2320 0EB8                     l2312 0E2C  
                   l2240 0F78                     l2232 0F53                     l2216 0F28  
                   l2208 0EFC                     l2304 0B1B                     l2400 02B4  
                   l2090 0727                     l2082 0703                     l2074 0678  
                   l2066 05F8                     l2058 05B2                     l2170 0094  
                   l2162 006B                     l2154 0045                     l2146 0027  
                   l2322 0EBC                     l2314 0E82                     l2250 0FC3  
                   l2242 0F80                     l2234 0F5D                     l2218 0F2C  
                   l2330 0B65                     l2306 0B20                     l2410 02E7  
                   l2402 02BA                     l2092 0728                     l2084 070C  
                   l2076 0688                     l2068 0615                     l2180 00BE  
                   l2172 009E                     l2164 007B                     l2156 0052  
                   l2148 0037                     l2324 0EC1                     l2316 0E92  
                   l2252 0FD0                     l2236 0F63                     l2244 0F86  
                   l2228 0F37                     l2260 0FFD                     l2332 0B69  
                   l2340 0B83                     l2420 030F                     l2412 02ED  
                   l2404 02C4                     l2190 0B32                     l2094 0731  
                   l2086 071A                     l2078 06B5                     l2174 00B4  
                   l2166 0086                     l2158 0059                     l2326 0EC6  
                   l2318 0EA8                     l1710 0C5D                     l1702 0C49  
                   l2254 0FD8                     l2246 0F8D                     l2238 0F6B  
                   l2510 0F0F                     l2334 0B6D                     l2270 0C16  
                   l2342 0B84                     l2350 0BEA                     l2430 033B  
                   l2422 0315                     l2414 02F3                     l2406 02DC  
                   l2192 0B34                     l2184 0B25                     l2360 0D2F  
                   l1800 0CF2                     l2088 0723                     l2096 0737  
                   l2176 00B9                     l2168 008A                     l1712 0C61  
                   l1704 0C4F                     l1720 0C7E                     l2248 0FBB  
                   l2256 0FDE                     l2328 0B64                     l2280 0C25  
                   l2272 0C1F                     l2344 0B88                     l2352 0BEF  
                   l2432 0348                     l2424 0322                     l2416 02FE  
                   l2440 036E                     l2408 02E4                     l2186 0B26  
                   l2370 0D48                     l2362 0D30                     l1810 0D12  
                   l1802 0CF6                     l1730 0BD0                     l2098 073B  
                   l2178 00BD                     l1714 0C6B                     l1706 0C52  
                   l2258 0FE9                     l2290 0C30                     l2282 0C26  
                   l2274 0C22                     l2346 0B96                     l2338 0B7F  
                   l2354 0BF3                     l2450 0398                     l2442 0376  
                   l2434 034E                     l2426 0328                     l2418 0304  
                   l2188 0B2C                     l2372 0D50                     l2364 0D34  
                   l1812 0D19                     l1804 0CFA                     l1900 0137  
                   l1732 0BDF                     l1724 0BC3                     l1716 0C71  
                   l1708 0C59                     l2196 0ECF                     l1740 0B53  
                   l2292 0C33                     l2284 0C29                     l2276 0C23  
                   l2268 0C12                     l2356 0BFC                     l2460 03C4  
                   l2452 039E                     l2444 037C                     l2436 035B  
                   l2428 0335                     l1750 0B9D                     l2390 0DA4  
                   l2382 0D87                     l2374 0D59                     l2366 0D3D  
                   l1806 0D0B                     l1814 0D1F                     l1902 013B  
                   l1734 0BE4                     l1726 0BC5                     l1830 0DD4  
                   l1822 0DA9                     l1718 0C78                     l2198 0ED0  
                   l1742 0B55                     l2294 0C36                     l2286 0C2C  
                   l2278 0C24                     l2358 0C04                     l2470 03FD  
                   l2462 03D1                     l2454 03AB                     l2446 0387  
                   l2438 0361                     l1760 0BBD                     l1752 0B9F  
                   l2384 0D93                     l2376 0D61                     l2368 0D45  
                   l1816 0D24                     l1808 0D11                     l1920 017C  
                   l1912 0152                     l1728 0BCC                     l1832 0DD5  
                   l1824 0DB6                     l1680 0C8B                     l1672 0B12  
                   l1744 0B57                     l2296 0C3A                     l2288 0C2F  
                   l2480 044A                     l2472 0409                     l2464 03D7  
                   l2456 03B1                     l2448 038D                     l1754 0BA3  
                   l2386 0D98                     l2378 0D66                     l1818 0D29  
                   l1770 0B40                     l1930 019A                     l1922 017E  
                   l1914 0164                     l1906 0144                     l1834 0DDD  
                   l1690 0CAE                     l1682 0C8E                     l1674 0B18  
                   l1746 0B5A                     l1738 0B4C                     l2298 0C3C  
                   l2482 0461                     l2474 0415                     l2466 03E4  
                   l2458 03BE                     l2394 02A4                     l1756 0BB0  
                   l1780 0CC8                     l1772 0B42                     l1764 0B37  
                   l1924 0183                     l1932 01A3                     l1940 01C8  
                   l1916 016C                     l1908 0149                     l1860 00CE  
                   l1852 0E04                     l1844 0DEB                     l1836 0DDF  
                   l1828 0DBF                     l1692 0CB4                     l1684 0C95  
                   l1676 0C83                     l1748 0B03                     l2484 046D  
                   l2476 041C                     l2468 03EA                     l2396 02A9  
                   l1758 0BB7                     l1790 0CDC                     l1782 0CCC  
                   l1774 0B49                     l1766 0B38                     l1950 01E5  
                   l1942 01CE                     l1934 01B5                     l1926 0195  
                   l1918 0174                     l1870 00E3                     l1862 00D4  
                   l1854 0E14                     l1838 0DE3                     l1846 0DFD  
                   l1694 0CB5                     l1686 0C99                     l1678 0C85  
                   l2486 0479                     l2478 0433                     l2398 02AC  
                   l1792 0CE0                     l1784 0CD1                     l1768 0B3C  
                   l1960 01FA                     l1952 01E6                     l1944 01D6  
                   l1936 01B6                     l1928 0199                     l1880 00FB  
                   l1872 00EB                     l1864 00D8                     l1856 0E19  
                   l1696 0CBC                     l1688 0C9D                     l2488 0485  
                   l1794 0CE2                     l1786 0CD3                     l1778 0CC7  
                   l1970 021F                     l1962 01FE                     l1954 01EF  
                   l1946 01D8                     l1938 01C4                     l1890 0110  
                   l1882 0101                     l1874 00EC                     l1866 00D9  
                   l1858 00C7                     l1698 0CC2                     l1796 0CE8  
                   l1788 0CD7                     l1980 025D                     l1972 022D  
                   l1964 0212                     l1948 01E1                     l1956 01F5  
                   l1892 0118                     l1884 0105                     l1868 00DE  
                   l1876 00EE                     l1798 0CEB                     l1990 028D  
                   l1982 026B                     l1974 0231                     l1958 01F9  
                   l1894 0119                     l1886 0106                     l1878 00F6  
                   l1992 0291                     l1984 027A                     l1976 024A  
                   l1968 021A                     l1888 010B                     l1896 011B  
                   l1994 0293                     l1986 027E                     l1978 0250  
                   l1898 012B                     l1988 0286                     STR_1 0810  
                   STR_2 0821                     STR_3 0832                     STR_4 0832  
                   STR_5 0832                     u2010 0DFC                     u2011 0DFB  
                   u2100 010B                     u2020 0E03                     u2101 010A  
                   u2021 0E02                     u2005 0DEC                     u2110 0110  
                   u2111 010F                     u3000 0D3D                     u2200 01CE  
                   u2120 012B                     u2040 0E14                     u3001 0D3C  
                   u2201 01CD                     u2121 012A                     u2041 0E13  
                   u3010 0D45                     u2210 01D6                     u2130 0149  
                   u2050 0E19                     u3011 0D44                     u2211 01D5  
                   u2131 0148                     u2051 0E18                     u2035 0E06  
                   u3020 0D50                     u2300 0231                     u2140 0183  
                   u2060 00D8                     u3100 034E                     u3021 0D4F  
                   u2301 0230                     u2141 0182                     u2061 00D7  
                   u3101 034D                     u3030 0D61                     u2310 0240  
                   u2230 01E5                     u2070 00DE                     u3110 0361  
                   u3031 0D60                     u2231 01E4                     u2071 00DD  
                   u3111 0360                     u3040 0D93                     u2320 025D  
                   u2080 00E3                     u2400 04D3                     u3200 0415  
                   u3120 037C                     u3041 0D92                     u2321 025C  
                   u2225 01DA                     u2081 00E2                     u2401 04D2  
                   u3201 0414                     u3121 037B                     u3050 0D98  
                   u2330 027A                     u2250 01F9                     u2170 0199  
                   u2090 0105                     u2410 04EA                     u1610 0B18  
                   u3130 039E                     u3051 0D97                     u2331 0279  
                   u2315 023B                     u2251 01F8                     u2171 0198  
                   u2155 0185                     u2091 0104                     u2411 04E9  
                   u1611 0B17                     u3131 039D                     u2340 0291  
                   u2260 01FE                     u2420 04EF                     u1620 0C8B  
                   u3140 03B1                     u3060 02F3                     u2341 0290  
                   u2325 0259                     u2261 01FD                     u2245 01E8  
                   u2165 018E                     u2421 04EE                     u1621 0C8A  
                   u3141 03B0                     u3061 02F2                     u2270 0212  
                   u2190 01B5                     u2350 049C                     u1710 0C61  
                   u3150 03C4                     u3070 0315                     u2335 0276  
                   u2271 0211                     u2191 01B4                     u2511 063D  
                   u2431 0540                     u2351 049B                     u1711 0C60  
                   u3151 03C3                     u3071 0314                     u1800 0BA3  
                   u2280 0219                     u2600 0727                     u2512 0644  
                   u2432 0547                     u2360 04A2                     u1640 0C9D  
                   u1720 0C6B                     u3160 03D7                     u3080 0328  
                   u1801 0BA2                     u2281 0218                     u2185 019C  
                   u2601 0726                     u2521 066A                     u2513 064B  
                   u2505 0617                     u2441 055C                     u2433 054E  
                   u2361 04A1                     u1641 0C9C                     u1721 0C6A  
                   u1705 0C53                     u3161 03D6                     u3081 0327  
                   u3217 02B0                     u2290 021F                     u2522 0671  
                   u2442 0563                     u2370 04A7                     u3170 03EA  
                   u3090 033B                     u2291 021E                     u2195 01B1  
                   u2531 0697                     u2523 0678                     u2451 0588  
                   u2443 056A                     u2371 04A6                     u1635 0C8F  
                   u3171 03E9                     u3307 0369                     u3091 033A  
                   u3227 02C8                     u1900 0CFA                     u2700 07B9  
                   u2620 073B                     u2540 06C1                     u2532 069E  
                   u2452 058F                     u2380 04C8                     u1660 0CAE  
                   u1740 0C7E                     u3180 03FD                     u1901 0CF9  
                   u2701 07B8                     u2621 073A                     u2533 06A5  
                   u2461 05A4                     u2453 0596                     u2381 04C7  
                   u1661 0CAD                     u1741 0C7D                     u1725 0C67  
                   u3181 03FC                     u3317 0382                     u3237 02E0  
                   u1830 0BBD                     u1750 0BD0                     u2710 07D7  
                   u2630 0740                     u2462 05AB                     u2390 04CE  
                   u3190 0409                     u1831 0BBC                     u1815 0BAA  
                   u1751 0BCF                     u2711 07D6                     u2631 073F  
                   u2615 072A                     u2551 06CD                     u2463 05B2  
                   u2391 04CD                     u1655 0C9E                     u1735 0C72  
                   u3191 0408                     u3327 0393                     u3247 02F9  
                   u1920 0D0B                     u1840 0B3C                     u2640 0754  
                   u2560 06E9                     u2552 06D4                     u2800 008A  
                   u2720 0013                     u1680 0CC2                     u1825 0BB1  
                   u1921 0D0A                     u1841 0B3B                     u2705 07B5  
                   u2641 0753                     u2553 06DB                     u2545 06BC  
                   u2481 05DA                     u2801 0089                     u2721 0012  
                   u1681 0CC1                     u1665 0CAA                     u3337 03A6  
                   u3257 030A                     u1850 0B49                     u1770 0BE4  
                   u2650 075B                     u2482 05E1                     u2810 0090  
                   u2730 0017                     u1690 0C4F                     u1915 0CFB  
                   u1851 0B48                     u1771 0BE3                     u2651 075A  
                   u2571 06F5                     u2491 0607                     u2483 05E8  
                   u2475 05B4                     u2811 008F                     u2731 0016  
                   u1675 0CB6                     u1691 0C4E                     u3347 03B9  
                   u3267 031D                     u1940 0D1F                     u1860 0CCC  
                   u2660 0761                     u2572 06FC                     u2492 060E  
                   u2820 0094                     u2740 0037                     u2900 0F2C  
                   u1780 0B53                     u1941 0D1E                     u1925 0D07  
                   u1861 0CCB                     u1765 0BD7                     u2661 0760  
                   u2573 0703                     u2565 06E4                     u2493 0615  
                   u2821 0093                     u2741 0036                     u2901 0F2B  
                   u1781 0B52                     u3357 03CC                     u3277 0330  
                   u1950 0D24                     u1870 0CD7                     u2670 0773  
                   u2830 00A9                     u2910 0F52                     u1790 0B09  
                   u1951 0D23                     u1935 0D13                     u1871 0CD6  
                   u2671 0772                     u2911 0F51                     u1791 0B08  
                   u3367 03DF                     u3287 0343                     u1880 0CE8  
                   u2680 0782                     u1960 0DB6                     u2840 00B9  
                   u2760 0058                     u2920 0F5D                     u1881 0CE7  
                   u2585 0705                     u1961 0DB5                     u2841 00B8  
                   u2761 0057                     u2921 0F5C                     u3377 03F2  
                   u3297 0356                     u2690 079F                     u1970 0DCD  
                   u2850 00BD                     u2930 0F63                     u2691 079E  
                   u2595 071C                     u2851 00BC                     u2835 00A4  
                   u2755 004A                     u2931 0F62                     u2915 0F4E  
                   u2860 0B2C                     u1980 0DE3                     u2780 007A  
                   u2940 0F6B                     u2861 0B2B                     u2685 077D  
                   u1981 0DE2                     u2781 0079                     u2941 0F6A  
                   u2870 0B32                     u1990 0DEA                     u2950 0FC3  
                   u2871 0B31                     u1895 0CEC                     u2695 079B  
                   u1991 0DE9                     u1975 0DC8                     u2775 006C  
                   u2951 0FC2                     u2960 0FE9                     u2880 0ED6  
                   u2961 0FE8                     u2881 0ED5                     u2970 0FFD  
                   u2890 0EDE                     u2795 007F                     u2971 0FFC  
                   u2891 0EDD                     u2980 0BFB                     _RCIF 0065  
                   u2981 0BFA                     u2990 0C11                     u2991 0C10  
                   _TXIF 0064                     _atoi 0D2E                     _main 02A4  
                   btemp 007E                     start 0000          ___fldiv@new_exp 004C  
      ___bmul@multiplier 0073              division@val 0065            ___fltol@sign1 005D  
                  ?_atoi 0076                    ?_main 0070          __end_of___fldiv 02A4  
        __end_of___awdiv 0D2E          __end_of___flmul 07EC          __end_of___fltol 0E25  
                  _ANSEL 0188          ___awdiv@divisor 0070          __end_of___lwdiv 0CC7  
        __end_of___lwmod 0C83          ___awdiv@counter 0075                    _RCREG 001A  
                  _SPBRG 0099                    _PORTB 0006                    _PORTD 0008  
        __end_of__doprnt 1000                    _TRISB 0086                    _TRISD 0088  
                  _TXREG 0019          __end_of_dpowers 0810          __end_of_isdigit 0B36  
                  atoi@a 007B                    _setup 0C12                    atoi@s 007D  
                  _putch 0B12                    fpbase 0008                    pclath 000A  
        __end_of_spiInit 0B61          __end_of_spiRead 0B24                    status 0003  
                  wtemp0 007E          __end_of_sprintf 0B9D          __initialization 07EC  
           __end_of_atoi 0DA9             __end_of_main 048B                   ??_atoi 0078  
                 ??_main 0066                   _DECENA 00A1         ___awdiv@dividend 0072  
                 ?_setup 0070                   ?_putch 0070                   _ANSELH 0189  
                 _SPBRGH 009A                   _UNIDAD 00A0                   _TRISC2 043A  
                 _TRISC3 043B                   _TRISC5 043D                   _SSPCON 0014  
                 _SSPBUF 0013         __end_of__fptable 000C         __end_of___xxtofl 00C7  
                 ___bmul 0B36         __end_of_division 0ECC                   ___wmul 0B9D  
              ??___fldiv 0042                ??___awdiv 0074                ??___flmul 0028  
              ??___fltol 0058                ??___lwdiv 0074                ??___lwmod 007C  
              ??__doprnt 0022         ___awdiv@quotient 0077             __doprnt@flag 0025  
                 _printf 0B61             __doprnt@prec 0026                   _strcat 0BE9  
                 fptable 0003                   fptotal 0002                ??_isdigit 0070  
     __size_of__Umul8_16 0027         __end_of_spiWrite 0B03                ??_spiInit 0073  
              ??_spiRead 0070                ??_sprintf 002E             ___xxtofl@arg 007A  
           ___xxtofl@exp 0079             ___xxtofl@val 0070  __end_of__initialization 07FC  
             ___fltol@f1 0054      ___bmul@multiplicand 0070           __pcstackCOMMON 0070  
          __end_of_setup 0C49            __end_of_putch 0B1B         division@variable 0064  
             __doprnt@ap 0021               __doprnt@pb 002A                  ??_setup 0074  
                ??_putch 0071               __pbssBANK0 006B               __pbssBANK1 00A0  
      __end_of__Umul8_16 0BE9               __pmaintext 02A4                  ?___bmul 0070  
                ?___wmul 0070  __size_of_spiReceiveWait 0007                  _CENTENA 00A2  
                ?_printf 0070                  ?_strcat 0070                ?___xxtofl 0070  
                _SSPSTAT 0094               __stringtab 0800                ?_division 0070  
              ?_spiWrite 0070          __size_of___bmul 0015                  ___fldiv 00C7  
                ___awdiv 0CC7                  ___flmul 048B                  ___fltol 0DA9  
        __size_of___wmul 0025                  ___lwdiv 0C83                  ___lwmod 0C49  
                __doprnt 0ECC                  _decenas 006C                  __ptext1 0BE9  
                __ptext2 0B7C                  __ptext3 0AFD                  __ptext4 0B1B  
                __ptext5 0B03                  __ptext6 0C12                  __ptext7 0B4B  
                __ptext8 0B61                  __ptext9 0ECC          __size_of_printf 001B  
        __size_of_strcat 0029                  _dpowers 0806                  _isdigit 0B24  
             ??___xxtofl 0074                  _spiInit 0B4B                  _spiRead 0B1B  
                main@com 0069                  _sprintf 0B7C                  clrloop0 0B0B  
   end_of_initialization 07FC               ??_division 005F                _RCSTAbits 0018  
                printf@f 002D               ??_spiWrite 0070                _PORTCbits 0007  
          ___xxtofl@sign 0078              ___fldiv@grs 004E              ___fldiv@rem 0047  
            spiWrite@dat 0070              ___flmul@grs 002E                _TXSTAbits 0098  
         _spiReceiveWait 0B03           __end_of___bmul 0B4B           __end_of___wmul 0BC2  
            _BAUDCTLbits 0187           __end_of_printf 0B7C           __end_of_strcat 0C12  
    start_initialization 07EC   __end_of_spiReceiveWait 0B0A                 ??___bmul 0071  
               ??___wmul 0074                __Umul8_16 0BC2              __doprnt@val 0027  
               ??_printf 002B                 ??_strcat 0071                ___fldiv@a 003A  
              ___fldiv@b 003E                ___flmul@a 0024                ___flmul@b 0020  
              ___latbits 0002            __pcstackBANK0 0020        __size_of__fptable 0009  
      __size_of___xxtofl 00BA                __doprnt@c 0029                __doprnt@f 0020  
      __size_of_division 00A7         ___lwdiv@dividend 0072          ?_spiReceiveWait 0070  
              __pfunctab 0003                 ?___fldiv 003A                 ?___awdiv 0070  
               ?___flmul 0020                 ?___fltol 0054               ?__Umul8_16 0070  
               ?___lwdiv 0070                 ?___lwmod 0078                 ?__doprnt 0020  
      __size_of_spiWrite 0006                __pstrings 0800                 ?_isdigit 0070  
               ?_spiInit 0070                 ?_spiRead 0070         ___lwdiv@quotient 0075  
               ?_sprintf 002B           __size_of_setup 0037           __size_of_putch 0009  
   spiInit@sTransmitEdge 0072           ___wmul@product 0074                clear_ram0 0B0A  
     spiInit@sDataSample 0070                 _VOLTAJE1 006F                 _VOLTAJE2 006E  
            __stringbase 0805        ___wmul@multiplier 0070              ??__Umul8_16 0072  
       __size_of___fldiv 01DD         __size_of___awdiv 0067         __size_of___flmul 0361  
       __size_of___fltol 007C         __size_of___lwdiv 0044         __size_of___lwmod 003A  
       __size_of__doprnt 0134       __end_of__stringtab 0806              _isdigit$904 0070  
               __fptable 0003                 ___xxtofl 000D               strcat@from 0070  
       __size_of_isdigit 0012          ___lwdiv@divisor 0070                 _centenas 006D  
        ___lwdiv@counter 0077                 __ptext10 0B12                 __ptext11 0C49  
               __ptext20 0CC7                 __ptext12 0C83                 __ptext21 0D2E  
               __ptext13 0E25                 __ptext22 0B24                 __ptext14 000D  
               __ptext23 0B9D                 __ptext15 0DA9                 __ptext16 048B  
               __ptext17 0BC2                 __ptext18 00C7                 __ptext19 0B36  
       __size_of_spiInit 0016         __size_of_spiRead 0009                 _division 0E25  
       __size_of_sprintf 0021            __size_of_atoi 007B            __size_of_main 01E7  
               _spiWrite 0AFD                 _unidades 006B             spiInit@sType 0073  
               atoi@sign 007A                 fp__putch 0009        spiInit@sClockIdle 0071  
              putch@info 0070                 isdigit@c 0071                sprintf@ap 0030  
              sprintf@pb 0032                sprintf@wh 0031         ___lwmod@dividend 007A  
       ??_spiReceiveWait 0070                stringcode 0800               _OSCCONbits 008F  
               printf@ap 002E                 printf@pb 002F   __Umul8_16@multiplicand 0070  
               sprintf@f 002B                 strcat@cp 0073                 strcat@to 0072  
        ___lwmod@divisor 0078          ___lwmod@counter 007D                 stringdir 0800  
               stringtab 0800     __Umul8_16@multiplier 0078        __Umul8_16@product 0074  
